
RBE3001_Team13.elf:     file format elf32-avr

Sections:
Idx Name          Size      VMA       LMA       File off  Algn
  0 .data         00000164  00800100  000017b0  00001844  2**0
                  CONTENTS, ALLOC, LOAD, DATA
  1 .text         000017b0  00000000  00000000  00000094  2**1
                  CONTENTS, ALLOC, LOAD, READONLY, CODE
  2 .bss          0000001a  00800264  00800264  000019a8  2**0
                  ALLOC
  3 .debug_aranges 000000c0  00000000  00000000  000019a8  2**0
                  CONTENTS, READONLY, DEBUGGING
  4 .debug_pubnames 00000106  00000000  00000000  00001a68  2**0
                  CONTENTS, READONLY, DEBUGGING
  5 .debug_info   000010ae  00000000  00000000  00001b6e  2**0
                  CONTENTS, READONLY, DEBUGGING
  6 .debug_abbrev 000009a9  00000000  00000000  00002c1c  2**0
                  CONTENTS, READONLY, DEBUGGING
  7 .debug_line   00000927  00000000  00000000  000035c5  2**0
                  CONTENTS, READONLY, DEBUGGING
  8 .debug_frame  000000c0  00000000  00000000  00003eec  2**2
                  CONTENTS, READONLY, DEBUGGING
  9 .debug_str    00000240  00000000  00000000  00003fac  2**0
                  CONTENTS, READONLY, DEBUGGING
 10 .debug_loc    0000047a  00000000  00000000  000041ec  2**0
                  CONTENTS, READONLY, DEBUGGING
 11 .debug_ranges 00000050  00000000  00000000  00004666  2**0
                  CONTENTS, READONLY, DEBUGGING

Disassembly of section .text:

00000000 <__vectors>:
       0:	0c 94 bf 00 	jmp	0x17e	; 0x17e <__ctors_end>
       4:	0c 94 dc 00 	jmp	0x1b8	; 0x1b8 <__bad_interrupt>
       8:	0c 94 dc 00 	jmp	0x1b8	; 0x1b8 <__bad_interrupt>
       c:	0c 94 dc 00 	jmp	0x1b8	; 0x1b8 <__bad_interrupt>
      10:	0c 94 dc 00 	jmp	0x1b8	; 0x1b8 <__bad_interrupt>
      14:	0c 94 dc 00 	jmp	0x1b8	; 0x1b8 <__bad_interrupt>
      18:	0c 94 dc 00 	jmp	0x1b8	; 0x1b8 <__bad_interrupt>
      1c:	0c 94 dc 00 	jmp	0x1b8	; 0x1b8 <__bad_interrupt>
      20:	0c 94 dc 00 	jmp	0x1b8	; 0x1b8 <__bad_interrupt>
      24:	0c 94 dc 00 	jmp	0x1b8	; 0x1b8 <__bad_interrupt>
      28:	0c 94 dc 00 	jmp	0x1b8	; 0x1b8 <__bad_interrupt>
      2c:	0c 94 dc 00 	jmp	0x1b8	; 0x1b8 <__bad_interrupt>
      30:	0c 94 dc 00 	jmp	0x1b8	; 0x1b8 <__bad_interrupt>
      34:	0c 94 dc 00 	jmp	0x1b8	; 0x1b8 <__bad_interrupt>
      38:	0c 94 dc 00 	jmp	0x1b8	; 0x1b8 <__bad_interrupt>
      3c:	0c 94 dc 00 	jmp	0x1b8	; 0x1b8 <__bad_interrupt>
      40:	0c 94 e0 07 	jmp	0xfc0	; 0xfc0 <__vector_16>
      44:	0c 94 dc 00 	jmp	0x1b8	; 0x1b8 <__bad_interrupt>
      48:	0c 94 dc 00 	jmp	0x1b8	; 0x1b8 <__bad_interrupt>
      4c:	0c 94 dc 00 	jmp	0x1b8	; 0x1b8 <__bad_interrupt>
      50:	0c 94 dc 00 	jmp	0x1b8	; 0x1b8 <__bad_interrupt>
      54:	0c 94 dc 00 	jmp	0x1b8	; 0x1b8 <__bad_interrupt>
      58:	0c 94 dc 00 	jmp	0x1b8	; 0x1b8 <__bad_interrupt>
      5c:	0c 94 dc 00 	jmp	0x1b8	; 0x1b8 <__bad_interrupt>
      60:	0c 94 dc 00 	jmp	0x1b8	; 0x1b8 <__bad_interrupt>
      64:	0c 94 dc 00 	jmp	0x1b8	; 0x1b8 <__bad_interrupt>
      68:	0c 94 dc 00 	jmp	0x1b8	; 0x1b8 <__bad_interrupt>
      6c:	0c 94 dc 00 	jmp	0x1b8	; 0x1b8 <__bad_interrupt>
      70:	0c 94 dc 00 	jmp	0x1b8	; 0x1b8 <__bad_interrupt>
      74:	0c 94 dc 00 	jmp	0x1b8	; 0x1b8 <__bad_interrupt>
      78:	0c 94 dc 00 	jmp	0x1b8	; 0x1b8 <__bad_interrupt>

0000007c <__c.1790>:
      7c:	6e 61 6e 00                                         nan.

00000080 <__c.1788>:
      80:	69 6e 66 00 00 40 7a 10 f3 5a 00 a0 72 4e 18 09     inf..@z..Z..rN..
      90:	00 10 a5 d4 e8 00 00 e8 76 48 17 00 00 e4 0b 54     ........vH.....T
      a0:	02 00 00 ca 9a 3b 00 00 00 e1 f5 05 00 00 80 96     .....;..........
      b0:	98 00 00 00 40 42 0f 00 00 00 a0 86 01 00 00 00     ....@B..........
      c0:	10 27 00 00 00 00 e8 03 00 00 00 00 64 00 00 00     .'..........d...
      d0:	00 00 0a 00 00 00 00 00 01 00 00 00 00 00 2c 76     ..............,v
      e0:	d8 88 dc 67 4f 08 23 df c1 df ae 59 e1 b1 b7 96     ...gO.#....Y....
      f0:	e5 e3 e4 53 c6 3a e6 51 99 76 96 e8 e6 c2 84 26     ...S.:.Q.v.....&
     100:	eb 89 8c 9b 62 ed 40 7c 6f fc ef bc 9c 9f 40 f2     ....b.@|o.....@.
     110:	ba a5 6f a5 f4 90 05 5a 2a f7 5c 93 6b 6c f9 67     ..o....Z*.\.kl.g
     120:	6d c1 1b fc e0 e4 0d 47 fe f5 20 e6 b5 00 d0 ed     m......G.. .....
     130:	90 2e 03 00 94 35 77 05 00 80 84 1e 08 00 00 20     .....5w........ 
     140:	4e 0a 00 00 00 c8 0c 33 33 33 33 0f 98 6e 12 83     N......3333..n..
     150:	11 41 ef 8d 21 14 89 3b e6 55 16 cf fe e6 db 18     .A..!..;.U......
     160:	d1 84 4b 38 1b f7 7c 1d 90 1d a4 bb e4 24 20 32     ..K8..|......$ 2
     170:	84 72 5e 22 81 00 c9 f1 24 ec a1 e5 3d 27           .r^"....$...='

0000017e <__ctors_end>:
     17e:	11 24       	eor	r1, r1
     180:	1f be       	out	0x3f, r1	; 63
     182:	cf ef       	ldi	r28, 0xFF	; 255
     184:	d0 e1       	ldi	r29, 0x10	; 16
     186:	de bf       	out	0x3e, r29	; 62
     188:	cd bf       	out	0x3d, r28	; 61

0000018a <__do_copy_data>:
     18a:	12 e0       	ldi	r17, 0x02	; 2
     18c:	a0 e0       	ldi	r26, 0x00	; 0
     18e:	b1 e0       	ldi	r27, 0x01	; 1
     190:	e0 eb       	ldi	r30, 0xB0	; 176
     192:	f7 e1       	ldi	r31, 0x17	; 23
     194:	02 c0       	rjmp	.+4      	; 0x19a <.do_copy_data_start>

00000196 <.do_copy_data_loop>:
     196:	05 90       	lpm	r0, Z+
     198:	0d 92       	st	X+, r0

0000019a <.do_copy_data_start>:
     19a:	a4 36       	cpi	r26, 0x64	; 100
     19c:	b1 07       	cpc	r27, r17
     19e:	d9 f7       	brne	.-10     	; 0x196 <.do_copy_data_loop>

000001a0 <__do_clear_bss>:
     1a0:	12 e0       	ldi	r17, 0x02	; 2
     1a2:	a4 e6       	ldi	r26, 0x64	; 100
     1a4:	b2 e0       	ldi	r27, 0x02	; 2
     1a6:	01 c0       	rjmp	.+2      	; 0x1aa <.do_clear_bss_start>

000001a8 <.do_clear_bss_loop>:
     1a8:	1d 92       	st	X+, r1

000001aa <.do_clear_bss_start>:
     1aa:	ae 37       	cpi	r26, 0x7E	; 126
     1ac:	b1 07       	cpc	r27, r17
     1ae:	e1 f7       	brne	.-8      	; 0x1a8 <.do_clear_bss_loop>
     1b0:	0e 94 34 09 	call	0x1268	; 0x1268 <main>
     1b4:	0c 94 d6 0b 	jmp	0x17ac	; 0x17ac <_exit>

000001b8 <__bad_interrupt>:
     1b8:	0c 94 00 00 	jmp	0	; 0x0 <__vectors>

000001bc <__mulsf3>:
     1bc:	a0 e2       	ldi	r26, 0x20	; 32
     1be:	b0 e0       	ldi	r27, 0x00	; 0
     1c0:	e4 ee       	ldi	r30, 0xE4	; 228
     1c2:	f0 e0       	ldi	r31, 0x00	; 0
     1c4:	0c 94 ee 09 	jmp	0x13dc	; 0x13dc <__prologue_saves__>
     1c8:	69 83       	std	Y+1, r22	; 0x01
     1ca:	7a 83       	std	Y+2, r23	; 0x02
     1cc:	8b 83       	std	Y+3, r24	; 0x03
     1ce:	9c 83       	std	Y+4, r25	; 0x04
     1d0:	2d 83       	std	Y+5, r18	; 0x05
     1d2:	3e 83       	std	Y+6, r19	; 0x06
     1d4:	4f 83       	std	Y+7, r20	; 0x07
     1d6:	58 87       	std	Y+8, r21	; 0x08
     1d8:	ce 01       	movw	r24, r28
     1da:	01 96       	adiw	r24, 0x01	; 1
     1dc:	be 01       	movw	r22, r28
     1de:	67 5f       	subi	r22, 0xF7	; 247
     1e0:	7f 4f       	sbci	r23, 0xFF	; 255
     1e2:	0e 94 d3 03 	call	0x7a6	; 0x7a6 <__unpack_f>
     1e6:	ce 01       	movw	r24, r28
     1e8:	05 96       	adiw	r24, 0x05	; 5
     1ea:	be 01       	movw	r22, r28
     1ec:	6f 5e       	subi	r22, 0xEF	; 239
     1ee:	7f 4f       	sbci	r23, 0xFF	; 255
     1f0:	0e 94 d3 03 	call	0x7a6	; 0x7a6 <__unpack_f>
     1f4:	99 85       	ldd	r25, Y+9	; 0x09
     1f6:	92 30       	cpi	r25, 0x02	; 2
     1f8:	88 f0       	brcs	.+34     	; 0x21c <__mulsf3+0x60>
     1fa:	89 89       	ldd	r24, Y+17	; 0x11
     1fc:	82 30       	cpi	r24, 0x02	; 2
     1fe:	c8 f0       	brcs	.+50     	; 0x232 <__mulsf3+0x76>
     200:	94 30       	cpi	r25, 0x04	; 4
     202:	19 f4       	brne	.+6      	; 0x20a <__mulsf3+0x4e>
     204:	82 30       	cpi	r24, 0x02	; 2
     206:	51 f4       	brne	.+20     	; 0x21c <__mulsf3+0x60>
     208:	04 c0       	rjmp	.+8      	; 0x212 <__mulsf3+0x56>
     20a:	84 30       	cpi	r24, 0x04	; 4
     20c:	29 f4       	brne	.+10     	; 0x218 <__mulsf3+0x5c>
     20e:	92 30       	cpi	r25, 0x02	; 2
     210:	81 f4       	brne	.+32     	; 0x232 <__mulsf3+0x76>
     212:	87 e4       	ldi	r24, 0x47	; 71
     214:	91 e0       	ldi	r25, 0x01	; 1
     216:	c6 c0       	rjmp	.+396    	; 0x3a4 <__mulsf3+0x1e8>
     218:	92 30       	cpi	r25, 0x02	; 2
     21a:	49 f4       	brne	.+18     	; 0x22e <__mulsf3+0x72>
     21c:	20 e0       	ldi	r18, 0x00	; 0
     21e:	9a 85       	ldd	r25, Y+10	; 0x0a
     220:	8a 89       	ldd	r24, Y+18	; 0x12
     222:	98 13       	cpse	r25, r24
     224:	21 e0       	ldi	r18, 0x01	; 1
     226:	2a 87       	std	Y+10, r18	; 0x0a
     228:	ce 01       	movw	r24, r28
     22a:	09 96       	adiw	r24, 0x09	; 9
     22c:	bb c0       	rjmp	.+374    	; 0x3a4 <__mulsf3+0x1e8>
     22e:	82 30       	cpi	r24, 0x02	; 2
     230:	49 f4       	brne	.+18     	; 0x244 <__mulsf3+0x88>
     232:	20 e0       	ldi	r18, 0x00	; 0
     234:	9a 85       	ldd	r25, Y+10	; 0x0a
     236:	8a 89       	ldd	r24, Y+18	; 0x12
     238:	98 13       	cpse	r25, r24
     23a:	21 e0       	ldi	r18, 0x01	; 1
     23c:	2a 8b       	std	Y+18, r18	; 0x12
     23e:	ce 01       	movw	r24, r28
     240:	41 96       	adiw	r24, 0x11	; 17
     242:	b0 c0       	rjmp	.+352    	; 0x3a4 <__mulsf3+0x1e8>
     244:	2d 84       	ldd	r2, Y+13	; 0x0d
     246:	3e 84       	ldd	r3, Y+14	; 0x0e
     248:	4f 84       	ldd	r4, Y+15	; 0x0f
     24a:	58 88       	ldd	r5, Y+16	; 0x10
     24c:	6d 88       	ldd	r6, Y+21	; 0x15
     24e:	7e 88       	ldd	r7, Y+22	; 0x16
     250:	8f 88       	ldd	r8, Y+23	; 0x17
     252:	98 8c       	ldd	r9, Y+24	; 0x18
     254:	ee 24       	eor	r14, r14
     256:	ff 24       	eor	r15, r15
     258:	87 01       	movw	r16, r14
     25a:	aa 24       	eor	r10, r10
     25c:	bb 24       	eor	r11, r11
     25e:	65 01       	movw	r12, r10
     260:	40 e0       	ldi	r20, 0x00	; 0
     262:	50 e0       	ldi	r21, 0x00	; 0
     264:	60 e0       	ldi	r22, 0x00	; 0
     266:	70 e0       	ldi	r23, 0x00	; 0
     268:	e0 e0       	ldi	r30, 0x00	; 0
     26a:	f0 e0       	ldi	r31, 0x00	; 0
     26c:	c1 01       	movw	r24, r2
     26e:	81 70       	andi	r24, 0x01	; 1
     270:	90 70       	andi	r25, 0x00	; 0
     272:	89 2b       	or	r24, r25
     274:	e9 f0       	breq	.+58     	; 0x2b0 <__mulsf3+0xf4>
     276:	e6 0c       	add	r14, r6
     278:	f7 1c       	adc	r15, r7
     27a:	08 1d       	adc	r16, r8
     27c:	19 1d       	adc	r17, r9
     27e:	9a 01       	movw	r18, r20
     280:	ab 01       	movw	r20, r22
     282:	2a 0d       	add	r18, r10
     284:	3b 1d       	adc	r19, r11
     286:	4c 1d       	adc	r20, r12
     288:	5d 1d       	adc	r21, r13
     28a:	80 e0       	ldi	r24, 0x00	; 0
     28c:	90 e0       	ldi	r25, 0x00	; 0
     28e:	a0 e0       	ldi	r26, 0x00	; 0
     290:	b0 e0       	ldi	r27, 0x00	; 0
     292:	e6 14       	cp	r14, r6
     294:	f7 04       	cpc	r15, r7
     296:	08 05       	cpc	r16, r8
     298:	19 05       	cpc	r17, r9
     29a:	20 f4       	brcc	.+8      	; 0x2a4 <__mulsf3+0xe8>
     29c:	81 e0       	ldi	r24, 0x01	; 1
     29e:	90 e0       	ldi	r25, 0x00	; 0
     2a0:	a0 e0       	ldi	r26, 0x00	; 0
     2a2:	b0 e0       	ldi	r27, 0x00	; 0
     2a4:	ba 01       	movw	r22, r20
     2a6:	a9 01       	movw	r20, r18
     2a8:	48 0f       	add	r20, r24
     2aa:	59 1f       	adc	r21, r25
     2ac:	6a 1f       	adc	r22, r26
     2ae:	7b 1f       	adc	r23, r27
     2b0:	aa 0c       	add	r10, r10
     2b2:	bb 1c       	adc	r11, r11
     2b4:	cc 1c       	adc	r12, r12
     2b6:	dd 1c       	adc	r13, r13
     2b8:	97 fe       	sbrs	r9, 7
     2ba:	08 c0       	rjmp	.+16     	; 0x2cc <__mulsf3+0x110>
     2bc:	81 e0       	ldi	r24, 0x01	; 1
     2be:	90 e0       	ldi	r25, 0x00	; 0
     2c0:	a0 e0       	ldi	r26, 0x00	; 0
     2c2:	b0 e0       	ldi	r27, 0x00	; 0
     2c4:	a8 2a       	or	r10, r24
     2c6:	b9 2a       	or	r11, r25
     2c8:	ca 2a       	or	r12, r26
     2ca:	db 2a       	or	r13, r27
     2cc:	31 96       	adiw	r30, 0x01	; 1
     2ce:	e0 32       	cpi	r30, 0x20	; 32
     2d0:	f1 05       	cpc	r31, r1
     2d2:	49 f0       	breq	.+18     	; 0x2e6 <__mulsf3+0x12a>
     2d4:	66 0c       	add	r6, r6
     2d6:	77 1c       	adc	r7, r7
     2d8:	88 1c       	adc	r8, r8
     2da:	99 1c       	adc	r9, r9
     2dc:	56 94       	lsr	r5
     2de:	47 94       	ror	r4
     2e0:	37 94       	ror	r3
     2e2:	27 94       	ror	r2
     2e4:	c3 cf       	rjmp	.-122    	; 0x26c <__mulsf3+0xb0>
     2e6:	fa 85       	ldd	r31, Y+10	; 0x0a
     2e8:	ea 89       	ldd	r30, Y+18	; 0x12
     2ea:	2b 89       	ldd	r18, Y+19	; 0x13
     2ec:	3c 89       	ldd	r19, Y+20	; 0x14
     2ee:	8b 85       	ldd	r24, Y+11	; 0x0b
     2f0:	9c 85       	ldd	r25, Y+12	; 0x0c
     2f2:	28 0f       	add	r18, r24
     2f4:	39 1f       	adc	r19, r25
     2f6:	2e 5f       	subi	r18, 0xFE	; 254
     2f8:	3f 4f       	sbci	r19, 0xFF	; 255
     2fa:	17 c0       	rjmp	.+46     	; 0x32a <__mulsf3+0x16e>
     2fc:	ca 01       	movw	r24, r20
     2fe:	81 70       	andi	r24, 0x01	; 1
     300:	90 70       	andi	r25, 0x00	; 0
     302:	89 2b       	or	r24, r25
     304:	61 f0       	breq	.+24     	; 0x31e <__mulsf3+0x162>
     306:	16 95       	lsr	r17
     308:	07 95       	ror	r16
     30a:	f7 94       	ror	r15
     30c:	e7 94       	ror	r14
     30e:	80 e0       	ldi	r24, 0x00	; 0
     310:	90 e0       	ldi	r25, 0x00	; 0
     312:	a0 e0       	ldi	r26, 0x00	; 0
     314:	b0 e8       	ldi	r27, 0x80	; 128
     316:	e8 2a       	or	r14, r24
     318:	f9 2a       	or	r15, r25
     31a:	0a 2b       	or	r16, r26
     31c:	1b 2b       	or	r17, r27
     31e:	76 95       	lsr	r23
     320:	67 95       	ror	r22
     322:	57 95       	ror	r21
     324:	47 95       	ror	r20
     326:	2f 5f       	subi	r18, 0xFF	; 255
     328:	3f 4f       	sbci	r19, 0xFF	; 255
     32a:	77 fd       	sbrc	r23, 7
     32c:	e7 cf       	rjmp	.-50     	; 0x2fc <__mulsf3+0x140>
     32e:	0c c0       	rjmp	.+24     	; 0x348 <__mulsf3+0x18c>
     330:	44 0f       	add	r20, r20
     332:	55 1f       	adc	r21, r21
     334:	66 1f       	adc	r22, r22
     336:	77 1f       	adc	r23, r23
     338:	17 fd       	sbrc	r17, 7
     33a:	41 60       	ori	r20, 0x01	; 1
     33c:	ee 0c       	add	r14, r14
     33e:	ff 1c       	adc	r15, r15
     340:	00 1f       	adc	r16, r16
     342:	11 1f       	adc	r17, r17
     344:	21 50       	subi	r18, 0x01	; 1
     346:	30 40       	sbci	r19, 0x00	; 0
     348:	40 30       	cpi	r20, 0x00	; 0
     34a:	90 e0       	ldi	r25, 0x00	; 0
     34c:	59 07       	cpc	r21, r25
     34e:	90 e0       	ldi	r25, 0x00	; 0
     350:	69 07       	cpc	r22, r25
     352:	90 e4       	ldi	r25, 0x40	; 64
     354:	79 07       	cpc	r23, r25
     356:	60 f3       	brcs	.-40     	; 0x330 <__mulsf3+0x174>
     358:	2b 8f       	std	Y+27, r18	; 0x1b
     35a:	3c 8f       	std	Y+28, r19	; 0x1c
     35c:	db 01       	movw	r26, r22
     35e:	ca 01       	movw	r24, r20
     360:	8f 77       	andi	r24, 0x7F	; 127
     362:	90 70       	andi	r25, 0x00	; 0
     364:	a0 70       	andi	r26, 0x00	; 0
     366:	b0 70       	andi	r27, 0x00	; 0
     368:	80 34       	cpi	r24, 0x40	; 64
     36a:	91 05       	cpc	r25, r1
     36c:	a1 05       	cpc	r26, r1
     36e:	b1 05       	cpc	r27, r1
     370:	61 f4       	brne	.+24     	; 0x38a <__mulsf3+0x1ce>
     372:	47 fd       	sbrc	r20, 7
     374:	0a c0       	rjmp	.+20     	; 0x38a <__mulsf3+0x1ce>
     376:	e1 14       	cp	r14, r1
     378:	f1 04       	cpc	r15, r1
     37a:	01 05       	cpc	r16, r1
     37c:	11 05       	cpc	r17, r1
     37e:	29 f0       	breq	.+10     	; 0x38a <__mulsf3+0x1ce>
     380:	40 5c       	subi	r20, 0xC0	; 192
     382:	5f 4f       	sbci	r21, 0xFF	; 255
     384:	6f 4f       	sbci	r22, 0xFF	; 255
     386:	7f 4f       	sbci	r23, 0xFF	; 255
     388:	40 78       	andi	r20, 0x80	; 128
     38a:	1a 8e       	std	Y+26, r1	; 0x1a
     38c:	fe 17       	cp	r31, r30
     38e:	11 f0       	breq	.+4      	; 0x394 <__mulsf3+0x1d8>
     390:	81 e0       	ldi	r24, 0x01	; 1
     392:	8a 8f       	std	Y+26, r24	; 0x1a
     394:	4d 8f       	std	Y+29, r20	; 0x1d
     396:	5e 8f       	std	Y+30, r21	; 0x1e
     398:	6f 8f       	std	Y+31, r22	; 0x1f
     39a:	78 a3       	std	Y+32, r23	; 0x20
     39c:	83 e0       	ldi	r24, 0x03	; 3
     39e:	89 8f       	std	Y+25, r24	; 0x19
     3a0:	ce 01       	movw	r24, r28
     3a2:	49 96       	adiw	r24, 0x19	; 25
     3a4:	0e 94 fe 02 	call	0x5fc	; 0x5fc <__pack_f>
     3a8:	a0 96       	adiw	r28, 0x20	; 32
     3aa:	e2 e1       	ldi	r30, 0x12	; 18
     3ac:	0c 94 0a 0a 	jmp	0x1414	; 0x1414 <__epilogue_restores__>

000003b0 <__floatsisf>:
     3b0:	a8 e0       	ldi	r26, 0x08	; 8
     3b2:	b0 e0       	ldi	r27, 0x00	; 0
     3b4:	ee ed       	ldi	r30, 0xDE	; 222
     3b6:	f1 e0       	ldi	r31, 0x01	; 1
     3b8:	0c 94 f7 09 	jmp	0x13ee	; 0x13ee <__prologue_saves__+0x12>
     3bc:	9b 01       	movw	r18, r22
     3be:	ac 01       	movw	r20, r24
     3c0:	83 e0       	ldi	r24, 0x03	; 3
     3c2:	89 83       	std	Y+1, r24	; 0x01
     3c4:	da 01       	movw	r26, r20
     3c6:	c9 01       	movw	r24, r18
     3c8:	88 27       	eor	r24, r24
     3ca:	b7 fd       	sbrc	r27, 7
     3cc:	83 95       	inc	r24
     3ce:	99 27       	eor	r25, r25
     3d0:	aa 27       	eor	r26, r26
     3d2:	bb 27       	eor	r27, r27
     3d4:	b8 2e       	mov	r11, r24
     3d6:	21 15       	cp	r18, r1
     3d8:	31 05       	cpc	r19, r1
     3da:	41 05       	cpc	r20, r1
     3dc:	51 05       	cpc	r21, r1
     3de:	19 f4       	brne	.+6      	; 0x3e6 <__floatsisf+0x36>
     3e0:	82 e0       	ldi	r24, 0x02	; 2
     3e2:	89 83       	std	Y+1, r24	; 0x01
     3e4:	3a c0       	rjmp	.+116    	; 0x45a <__floatsisf+0xaa>
     3e6:	88 23       	and	r24, r24
     3e8:	a9 f0       	breq	.+42     	; 0x414 <__floatsisf+0x64>
     3ea:	20 30       	cpi	r18, 0x00	; 0
     3ec:	80 e0       	ldi	r24, 0x00	; 0
     3ee:	38 07       	cpc	r19, r24
     3f0:	80 e0       	ldi	r24, 0x00	; 0
     3f2:	48 07       	cpc	r20, r24
     3f4:	80 e8       	ldi	r24, 0x80	; 128
     3f6:	58 07       	cpc	r21, r24
     3f8:	29 f4       	brne	.+10     	; 0x404 <__floatsisf+0x54>
     3fa:	60 e0       	ldi	r22, 0x00	; 0
     3fc:	70 e0       	ldi	r23, 0x00	; 0
     3fe:	80 e0       	ldi	r24, 0x00	; 0
     400:	9f ec       	ldi	r25, 0xCF	; 207
     402:	30 c0       	rjmp	.+96     	; 0x464 <__floatsisf+0xb4>
     404:	ee 24       	eor	r14, r14
     406:	ff 24       	eor	r15, r15
     408:	87 01       	movw	r16, r14
     40a:	e2 1a       	sub	r14, r18
     40c:	f3 0a       	sbc	r15, r19
     40e:	04 0b       	sbc	r16, r20
     410:	15 0b       	sbc	r17, r21
     412:	02 c0       	rjmp	.+4      	; 0x418 <__floatsisf+0x68>
     414:	79 01       	movw	r14, r18
     416:	8a 01       	movw	r16, r20
     418:	8e e1       	ldi	r24, 0x1E	; 30
     41a:	c8 2e       	mov	r12, r24
     41c:	d1 2c       	mov	r13, r1
     41e:	dc 82       	std	Y+4, r13	; 0x04
     420:	cb 82       	std	Y+3, r12	; 0x03
     422:	ed 82       	std	Y+5, r14	; 0x05
     424:	fe 82       	std	Y+6, r15	; 0x06
     426:	0f 83       	std	Y+7, r16	; 0x07
     428:	18 87       	std	Y+8, r17	; 0x08
     42a:	c8 01       	movw	r24, r16
     42c:	b7 01       	movw	r22, r14
     42e:	0e 94 af 02 	call	0x55e	; 0x55e <__clzsi2>
     432:	01 97       	sbiw	r24, 0x01	; 1
     434:	18 16       	cp	r1, r24
     436:	19 06       	cpc	r1, r25
     438:	84 f4       	brge	.+32     	; 0x45a <__floatsisf+0xaa>
     43a:	08 2e       	mov	r0, r24
     43c:	04 c0       	rjmp	.+8      	; 0x446 <__floatsisf+0x96>
     43e:	ee 0c       	add	r14, r14
     440:	ff 1c       	adc	r15, r15
     442:	00 1f       	adc	r16, r16
     444:	11 1f       	adc	r17, r17
     446:	0a 94       	dec	r0
     448:	d2 f7       	brpl	.-12     	; 0x43e <__floatsisf+0x8e>
     44a:	ed 82       	std	Y+5, r14	; 0x05
     44c:	fe 82       	std	Y+6, r15	; 0x06
     44e:	0f 83       	std	Y+7, r16	; 0x07
     450:	18 87       	std	Y+8, r17	; 0x08
     452:	c8 1a       	sub	r12, r24
     454:	d9 0a       	sbc	r13, r25
     456:	dc 82       	std	Y+4, r13	; 0x04
     458:	cb 82       	std	Y+3, r12	; 0x03
     45a:	ba 82       	std	Y+2, r11	; 0x02
     45c:	ce 01       	movw	r24, r28
     45e:	01 96       	adiw	r24, 0x01	; 1
     460:	0e 94 fe 02 	call	0x5fc	; 0x5fc <__pack_f>
     464:	28 96       	adiw	r28, 0x08	; 8
     466:	e9 e0       	ldi	r30, 0x09	; 9
     468:	0c 94 13 0a 	jmp	0x1426	; 0x1426 <__epilogue_restores__+0x12>

0000046c <__floatunsisf>:
     46c:	a8 e0       	ldi	r26, 0x08	; 8
     46e:	b0 e0       	ldi	r27, 0x00	; 0
     470:	ec e3       	ldi	r30, 0x3C	; 60
     472:	f2 e0       	ldi	r31, 0x02	; 2
     474:	0c 94 f6 09 	jmp	0x13ec	; 0x13ec <__prologue_saves__+0x10>
     478:	7b 01       	movw	r14, r22
     47a:	8c 01       	movw	r16, r24
     47c:	61 15       	cp	r22, r1
     47e:	71 05       	cpc	r23, r1
     480:	81 05       	cpc	r24, r1
     482:	91 05       	cpc	r25, r1
     484:	19 f4       	brne	.+6      	; 0x48c <__floatunsisf+0x20>
     486:	82 e0       	ldi	r24, 0x02	; 2
     488:	89 83       	std	Y+1, r24	; 0x01
     48a:	60 c0       	rjmp	.+192    	; 0x54c <__floatunsisf+0xe0>
     48c:	83 e0       	ldi	r24, 0x03	; 3
     48e:	89 83       	std	Y+1, r24	; 0x01
     490:	8e e1       	ldi	r24, 0x1E	; 30
     492:	c8 2e       	mov	r12, r24
     494:	d1 2c       	mov	r13, r1
     496:	dc 82       	std	Y+4, r13	; 0x04
     498:	cb 82       	std	Y+3, r12	; 0x03
     49a:	ed 82       	std	Y+5, r14	; 0x05
     49c:	fe 82       	std	Y+6, r15	; 0x06
     49e:	0f 83       	std	Y+7, r16	; 0x07
     4a0:	18 87       	std	Y+8, r17	; 0x08
     4a2:	c8 01       	movw	r24, r16
     4a4:	b7 01       	movw	r22, r14
     4a6:	0e 94 af 02 	call	0x55e	; 0x55e <__clzsi2>
     4aa:	fc 01       	movw	r30, r24
     4ac:	31 97       	sbiw	r30, 0x01	; 1
     4ae:	f7 ff       	sbrs	r31, 7
     4b0:	3b c0       	rjmp	.+118    	; 0x528 <__floatunsisf+0xbc>
     4b2:	22 27       	eor	r18, r18
     4b4:	33 27       	eor	r19, r19
     4b6:	2e 1b       	sub	r18, r30
     4b8:	3f 0b       	sbc	r19, r31
     4ba:	57 01       	movw	r10, r14
     4bc:	68 01       	movw	r12, r16
     4be:	02 2e       	mov	r0, r18
     4c0:	04 c0       	rjmp	.+8      	; 0x4ca <__floatunsisf+0x5e>
     4c2:	d6 94       	lsr	r13
     4c4:	c7 94       	ror	r12
     4c6:	b7 94       	ror	r11
     4c8:	a7 94       	ror	r10
     4ca:	0a 94       	dec	r0
     4cc:	d2 f7       	brpl	.-12     	; 0x4c2 <__floatunsisf+0x56>
     4ce:	40 e0       	ldi	r20, 0x00	; 0
     4d0:	50 e0       	ldi	r21, 0x00	; 0
     4d2:	60 e0       	ldi	r22, 0x00	; 0
     4d4:	70 e0       	ldi	r23, 0x00	; 0
     4d6:	81 e0       	ldi	r24, 0x01	; 1
     4d8:	90 e0       	ldi	r25, 0x00	; 0
     4da:	a0 e0       	ldi	r26, 0x00	; 0
     4dc:	b0 e0       	ldi	r27, 0x00	; 0
     4de:	04 c0       	rjmp	.+8      	; 0x4e8 <__floatunsisf+0x7c>
     4e0:	88 0f       	add	r24, r24
     4e2:	99 1f       	adc	r25, r25
     4e4:	aa 1f       	adc	r26, r26
     4e6:	bb 1f       	adc	r27, r27
     4e8:	2a 95       	dec	r18
     4ea:	d2 f7       	brpl	.-12     	; 0x4e0 <__floatunsisf+0x74>
     4ec:	01 97       	sbiw	r24, 0x01	; 1
     4ee:	a1 09       	sbc	r26, r1
     4f0:	b1 09       	sbc	r27, r1
     4f2:	8e 21       	and	r24, r14
     4f4:	9f 21       	and	r25, r15
     4f6:	a0 23       	and	r26, r16
     4f8:	b1 23       	and	r27, r17
     4fa:	00 97       	sbiw	r24, 0x00	; 0
     4fc:	a1 05       	cpc	r26, r1
     4fe:	b1 05       	cpc	r27, r1
     500:	21 f0       	breq	.+8      	; 0x50a <__floatunsisf+0x9e>
     502:	41 e0       	ldi	r20, 0x01	; 1
     504:	50 e0       	ldi	r21, 0x00	; 0
     506:	60 e0       	ldi	r22, 0x00	; 0
     508:	70 e0       	ldi	r23, 0x00	; 0
     50a:	4a 29       	or	r20, r10
     50c:	5b 29       	or	r21, r11
     50e:	6c 29       	or	r22, r12
     510:	7d 29       	or	r23, r13
     512:	4d 83       	std	Y+5, r20	; 0x05
     514:	5e 83       	std	Y+6, r21	; 0x06
     516:	6f 83       	std	Y+7, r22	; 0x07
     518:	78 87       	std	Y+8, r23	; 0x08
     51a:	8e e1       	ldi	r24, 0x1E	; 30
     51c:	90 e0       	ldi	r25, 0x00	; 0
     51e:	8e 1b       	sub	r24, r30
     520:	9f 0b       	sbc	r25, r31
     522:	9c 83       	std	Y+4, r25	; 0x04
     524:	8b 83       	std	Y+3, r24	; 0x03
     526:	12 c0       	rjmp	.+36     	; 0x54c <__floatunsisf+0xe0>
     528:	30 97       	sbiw	r30, 0x00	; 0
     52a:	81 f0       	breq	.+32     	; 0x54c <__floatunsisf+0xe0>
     52c:	0e 2e       	mov	r0, r30
     52e:	04 c0       	rjmp	.+8      	; 0x538 <__floatunsisf+0xcc>
     530:	ee 0c       	add	r14, r14
     532:	ff 1c       	adc	r15, r15
     534:	00 1f       	adc	r16, r16
     536:	11 1f       	adc	r17, r17
     538:	0a 94       	dec	r0
     53a:	d2 f7       	brpl	.-12     	; 0x530 <__floatunsisf+0xc4>
     53c:	ed 82       	std	Y+5, r14	; 0x05
     53e:	fe 82       	std	Y+6, r15	; 0x06
     540:	0f 83       	std	Y+7, r16	; 0x07
     542:	18 87       	std	Y+8, r17	; 0x08
     544:	ce 1a       	sub	r12, r30
     546:	df 0a       	sbc	r13, r31
     548:	dc 82       	std	Y+4, r13	; 0x04
     54a:	cb 82       	std	Y+3, r12	; 0x03
     54c:	1a 82       	std	Y+2, r1	; 0x02
     54e:	ce 01       	movw	r24, r28
     550:	01 96       	adiw	r24, 0x01	; 1
     552:	0e 94 fe 02 	call	0x5fc	; 0x5fc <__pack_f>
     556:	28 96       	adiw	r28, 0x08	; 8
     558:	ea e0       	ldi	r30, 0x0A	; 10
     55a:	0c 94 12 0a 	jmp	0x1424	; 0x1424 <__epilogue_restores__+0x10>

0000055e <__clzsi2>:
     55e:	ef 92       	push	r14
     560:	ff 92       	push	r15
     562:	0f 93       	push	r16
     564:	1f 93       	push	r17
     566:	7b 01       	movw	r14, r22
     568:	8c 01       	movw	r16, r24
     56a:	80 e0       	ldi	r24, 0x00	; 0
     56c:	e8 16       	cp	r14, r24
     56e:	80 e0       	ldi	r24, 0x00	; 0
     570:	f8 06       	cpc	r15, r24
     572:	81 e0       	ldi	r24, 0x01	; 1
     574:	08 07       	cpc	r16, r24
     576:	80 e0       	ldi	r24, 0x00	; 0
     578:	18 07       	cpc	r17, r24
     57a:	88 f4       	brcc	.+34     	; 0x59e <__clzsi2+0x40>
     57c:	8f ef       	ldi	r24, 0xFF	; 255
     57e:	e8 16       	cp	r14, r24
     580:	f1 04       	cpc	r15, r1
     582:	01 05       	cpc	r16, r1
     584:	11 05       	cpc	r17, r1
     586:	31 f0       	breq	.+12     	; 0x594 <__clzsi2+0x36>
     588:	28 f0       	brcs	.+10     	; 0x594 <__clzsi2+0x36>
     58a:	88 e0       	ldi	r24, 0x08	; 8
     58c:	90 e0       	ldi	r25, 0x00	; 0
     58e:	a0 e0       	ldi	r26, 0x00	; 0
     590:	b0 e0       	ldi	r27, 0x00	; 0
     592:	17 c0       	rjmp	.+46     	; 0x5c2 <__clzsi2+0x64>
     594:	80 e0       	ldi	r24, 0x00	; 0
     596:	90 e0       	ldi	r25, 0x00	; 0
     598:	a0 e0       	ldi	r26, 0x00	; 0
     59a:	b0 e0       	ldi	r27, 0x00	; 0
     59c:	12 c0       	rjmp	.+36     	; 0x5c2 <__clzsi2+0x64>
     59e:	80 e0       	ldi	r24, 0x00	; 0
     5a0:	e8 16       	cp	r14, r24
     5a2:	80 e0       	ldi	r24, 0x00	; 0
     5a4:	f8 06       	cpc	r15, r24
     5a6:	80 e0       	ldi	r24, 0x00	; 0
     5a8:	08 07       	cpc	r16, r24
     5aa:	81 e0       	ldi	r24, 0x01	; 1
     5ac:	18 07       	cpc	r17, r24
     5ae:	28 f0       	brcs	.+10     	; 0x5ba <__clzsi2+0x5c>
     5b0:	88 e1       	ldi	r24, 0x18	; 24
     5b2:	90 e0       	ldi	r25, 0x00	; 0
     5b4:	a0 e0       	ldi	r26, 0x00	; 0
     5b6:	b0 e0       	ldi	r27, 0x00	; 0
     5b8:	04 c0       	rjmp	.+8      	; 0x5c2 <__clzsi2+0x64>
     5ba:	80 e1       	ldi	r24, 0x10	; 16
     5bc:	90 e0       	ldi	r25, 0x00	; 0
     5be:	a0 e0       	ldi	r26, 0x00	; 0
     5c0:	b0 e0       	ldi	r27, 0x00	; 0
     5c2:	20 e2       	ldi	r18, 0x20	; 32
     5c4:	30 e0       	ldi	r19, 0x00	; 0
     5c6:	40 e0       	ldi	r20, 0x00	; 0
     5c8:	50 e0       	ldi	r21, 0x00	; 0
     5ca:	28 1b       	sub	r18, r24
     5cc:	39 0b       	sbc	r19, r25
     5ce:	4a 0b       	sbc	r20, r26
     5d0:	5b 0b       	sbc	r21, r27
     5d2:	04 c0       	rjmp	.+8      	; 0x5dc <__clzsi2+0x7e>
     5d4:	16 95       	lsr	r17
     5d6:	07 95       	ror	r16
     5d8:	f7 94       	ror	r15
     5da:	e7 94       	ror	r14
     5dc:	8a 95       	dec	r24
     5de:	d2 f7       	brpl	.-12     	; 0x5d4 <__clzsi2+0x76>
     5e0:	f7 01       	movw	r30, r14
     5e2:	e1 5b       	subi	r30, 0xB1	; 177
     5e4:	fe 4f       	sbci	r31, 0xFE	; 254
     5e6:	80 81       	ld	r24, Z
     5e8:	28 1b       	sub	r18, r24
     5ea:	31 09       	sbc	r19, r1
     5ec:	41 09       	sbc	r20, r1
     5ee:	51 09       	sbc	r21, r1
     5f0:	c9 01       	movw	r24, r18
     5f2:	1f 91       	pop	r17
     5f4:	0f 91       	pop	r16
     5f6:	ff 90       	pop	r15
     5f8:	ef 90       	pop	r14
     5fa:	08 95       	ret

000005fc <__pack_f>:
     5fc:	df 92       	push	r13
     5fe:	ef 92       	push	r14
     600:	ff 92       	push	r15
     602:	0f 93       	push	r16
     604:	1f 93       	push	r17
     606:	fc 01       	movw	r30, r24
     608:	e4 80       	ldd	r14, Z+4	; 0x04
     60a:	f5 80       	ldd	r15, Z+5	; 0x05
     60c:	06 81       	ldd	r16, Z+6	; 0x06
     60e:	17 81       	ldd	r17, Z+7	; 0x07
     610:	d1 80       	ldd	r13, Z+1	; 0x01
     612:	80 81       	ld	r24, Z
     614:	82 30       	cpi	r24, 0x02	; 2
     616:	48 f4       	brcc	.+18     	; 0x62a <__pack_f+0x2e>
     618:	80 e0       	ldi	r24, 0x00	; 0
     61a:	90 e0       	ldi	r25, 0x00	; 0
     61c:	a0 e1       	ldi	r26, 0x10	; 16
     61e:	b0 e0       	ldi	r27, 0x00	; 0
     620:	e8 2a       	or	r14, r24
     622:	f9 2a       	or	r15, r25
     624:	0a 2b       	or	r16, r26
     626:	1b 2b       	or	r17, r27
     628:	a5 c0       	rjmp	.+330    	; 0x774 <__pack_f+0x178>
     62a:	84 30       	cpi	r24, 0x04	; 4
     62c:	09 f4       	brne	.+2      	; 0x630 <__pack_f+0x34>
     62e:	9f c0       	rjmp	.+318    	; 0x76e <__pack_f+0x172>
     630:	82 30       	cpi	r24, 0x02	; 2
     632:	21 f4       	brne	.+8      	; 0x63c <__pack_f+0x40>
     634:	ee 24       	eor	r14, r14
     636:	ff 24       	eor	r15, r15
     638:	87 01       	movw	r16, r14
     63a:	05 c0       	rjmp	.+10     	; 0x646 <__pack_f+0x4a>
     63c:	e1 14       	cp	r14, r1
     63e:	f1 04       	cpc	r15, r1
     640:	01 05       	cpc	r16, r1
     642:	11 05       	cpc	r17, r1
     644:	19 f4       	brne	.+6      	; 0x64c <__pack_f+0x50>
     646:	e0 e0       	ldi	r30, 0x00	; 0
     648:	f0 e0       	ldi	r31, 0x00	; 0
     64a:	96 c0       	rjmp	.+300    	; 0x778 <__pack_f+0x17c>
     64c:	62 81       	ldd	r22, Z+2	; 0x02
     64e:	73 81       	ldd	r23, Z+3	; 0x03
     650:	9f ef       	ldi	r25, 0xFF	; 255
     652:	62 38       	cpi	r22, 0x82	; 130
     654:	79 07       	cpc	r23, r25
     656:	0c f0       	brlt	.+2      	; 0x65a <__pack_f+0x5e>
     658:	5b c0       	rjmp	.+182    	; 0x710 <__pack_f+0x114>
     65a:	22 e8       	ldi	r18, 0x82	; 130
     65c:	3f ef       	ldi	r19, 0xFF	; 255
     65e:	26 1b       	sub	r18, r22
     660:	37 0b       	sbc	r19, r23
     662:	2a 31       	cpi	r18, 0x1A	; 26
     664:	31 05       	cpc	r19, r1
     666:	2c f0       	brlt	.+10     	; 0x672 <__pack_f+0x76>
     668:	20 e0       	ldi	r18, 0x00	; 0
     66a:	30 e0       	ldi	r19, 0x00	; 0
     66c:	40 e0       	ldi	r20, 0x00	; 0
     66e:	50 e0       	ldi	r21, 0x00	; 0
     670:	2a c0       	rjmp	.+84     	; 0x6c6 <__pack_f+0xca>
     672:	b8 01       	movw	r22, r16
     674:	a7 01       	movw	r20, r14
     676:	02 2e       	mov	r0, r18
     678:	04 c0       	rjmp	.+8      	; 0x682 <__pack_f+0x86>
     67a:	76 95       	lsr	r23
     67c:	67 95       	ror	r22
     67e:	57 95       	ror	r21
     680:	47 95       	ror	r20
     682:	0a 94       	dec	r0
     684:	d2 f7       	brpl	.-12     	; 0x67a <__pack_f+0x7e>
     686:	81 e0       	ldi	r24, 0x01	; 1
     688:	90 e0       	ldi	r25, 0x00	; 0
     68a:	a0 e0       	ldi	r26, 0x00	; 0
     68c:	b0 e0       	ldi	r27, 0x00	; 0
     68e:	04 c0       	rjmp	.+8      	; 0x698 <__pack_f+0x9c>
     690:	88 0f       	add	r24, r24
     692:	99 1f       	adc	r25, r25
     694:	aa 1f       	adc	r26, r26
     696:	bb 1f       	adc	r27, r27
     698:	2a 95       	dec	r18
     69a:	d2 f7       	brpl	.-12     	; 0x690 <__pack_f+0x94>
     69c:	01 97       	sbiw	r24, 0x01	; 1
     69e:	a1 09       	sbc	r26, r1
     6a0:	b1 09       	sbc	r27, r1
     6a2:	8e 21       	and	r24, r14
     6a4:	9f 21       	and	r25, r15
     6a6:	a0 23       	and	r26, r16
     6a8:	b1 23       	and	r27, r17
     6aa:	00 97       	sbiw	r24, 0x00	; 0
     6ac:	a1 05       	cpc	r26, r1
     6ae:	b1 05       	cpc	r27, r1
     6b0:	21 f0       	breq	.+8      	; 0x6ba <__pack_f+0xbe>
     6b2:	81 e0       	ldi	r24, 0x01	; 1
     6b4:	90 e0       	ldi	r25, 0x00	; 0
     6b6:	a0 e0       	ldi	r26, 0x00	; 0
     6b8:	b0 e0       	ldi	r27, 0x00	; 0
     6ba:	9a 01       	movw	r18, r20
     6bc:	ab 01       	movw	r20, r22
     6be:	28 2b       	or	r18, r24
     6c0:	39 2b       	or	r19, r25
     6c2:	4a 2b       	or	r20, r26
     6c4:	5b 2b       	or	r21, r27
     6c6:	da 01       	movw	r26, r20
     6c8:	c9 01       	movw	r24, r18
     6ca:	8f 77       	andi	r24, 0x7F	; 127
     6cc:	90 70       	andi	r25, 0x00	; 0
     6ce:	a0 70       	andi	r26, 0x00	; 0
     6d0:	b0 70       	andi	r27, 0x00	; 0
     6d2:	80 34       	cpi	r24, 0x40	; 64
     6d4:	91 05       	cpc	r25, r1
     6d6:	a1 05       	cpc	r26, r1
     6d8:	b1 05       	cpc	r27, r1
     6da:	39 f4       	brne	.+14     	; 0x6ea <__pack_f+0xee>
     6dc:	27 ff       	sbrs	r18, 7
     6de:	09 c0       	rjmp	.+18     	; 0x6f2 <__pack_f+0xf6>
     6e0:	20 5c       	subi	r18, 0xC0	; 192
     6e2:	3f 4f       	sbci	r19, 0xFF	; 255
     6e4:	4f 4f       	sbci	r20, 0xFF	; 255
     6e6:	5f 4f       	sbci	r21, 0xFF	; 255
     6e8:	04 c0       	rjmp	.+8      	; 0x6f2 <__pack_f+0xf6>
     6ea:	21 5c       	subi	r18, 0xC1	; 193
     6ec:	3f 4f       	sbci	r19, 0xFF	; 255
     6ee:	4f 4f       	sbci	r20, 0xFF	; 255
     6f0:	5f 4f       	sbci	r21, 0xFF	; 255
     6f2:	e0 e0       	ldi	r30, 0x00	; 0
     6f4:	f0 e0       	ldi	r31, 0x00	; 0
     6f6:	20 30       	cpi	r18, 0x00	; 0
     6f8:	a0 e0       	ldi	r26, 0x00	; 0
     6fa:	3a 07       	cpc	r19, r26
     6fc:	a0 e0       	ldi	r26, 0x00	; 0
     6fe:	4a 07       	cpc	r20, r26
     700:	a0 e4       	ldi	r26, 0x40	; 64
     702:	5a 07       	cpc	r21, r26
     704:	10 f0       	brcs	.+4      	; 0x70a <__pack_f+0x10e>
     706:	e1 e0       	ldi	r30, 0x01	; 1
     708:	f0 e0       	ldi	r31, 0x00	; 0
     70a:	79 01       	movw	r14, r18
     70c:	8a 01       	movw	r16, r20
     70e:	27 c0       	rjmp	.+78     	; 0x75e <__pack_f+0x162>
     710:	60 38       	cpi	r22, 0x80	; 128
     712:	71 05       	cpc	r23, r1
     714:	64 f5       	brge	.+88     	; 0x76e <__pack_f+0x172>
     716:	fb 01       	movw	r30, r22
     718:	e1 58       	subi	r30, 0x81	; 129
     71a:	ff 4f       	sbci	r31, 0xFF	; 255
     71c:	d8 01       	movw	r26, r16
     71e:	c7 01       	movw	r24, r14
     720:	8f 77       	andi	r24, 0x7F	; 127
     722:	90 70       	andi	r25, 0x00	; 0
     724:	a0 70       	andi	r26, 0x00	; 0
     726:	b0 70       	andi	r27, 0x00	; 0
     728:	80 34       	cpi	r24, 0x40	; 64
     72a:	91 05       	cpc	r25, r1
     72c:	a1 05       	cpc	r26, r1
     72e:	b1 05       	cpc	r27, r1
     730:	39 f4       	brne	.+14     	; 0x740 <__pack_f+0x144>
     732:	e7 fe       	sbrs	r14, 7
     734:	0d c0       	rjmp	.+26     	; 0x750 <__pack_f+0x154>
     736:	80 e4       	ldi	r24, 0x40	; 64
     738:	90 e0       	ldi	r25, 0x00	; 0
     73a:	a0 e0       	ldi	r26, 0x00	; 0
     73c:	b0 e0       	ldi	r27, 0x00	; 0
     73e:	04 c0       	rjmp	.+8      	; 0x748 <__pack_f+0x14c>
     740:	8f e3       	ldi	r24, 0x3F	; 63
     742:	90 e0       	ldi	r25, 0x00	; 0
     744:	a0 e0       	ldi	r26, 0x00	; 0
     746:	b0 e0       	ldi	r27, 0x00	; 0
     748:	e8 0e       	add	r14, r24
     74a:	f9 1e       	adc	r15, r25
     74c:	0a 1f       	adc	r16, r26
     74e:	1b 1f       	adc	r17, r27
     750:	17 ff       	sbrs	r17, 7
     752:	05 c0       	rjmp	.+10     	; 0x75e <__pack_f+0x162>
     754:	16 95       	lsr	r17
     756:	07 95       	ror	r16
     758:	f7 94       	ror	r15
     75a:	e7 94       	ror	r14
     75c:	31 96       	adiw	r30, 0x01	; 1
     75e:	87 e0       	ldi	r24, 0x07	; 7
     760:	16 95       	lsr	r17
     762:	07 95       	ror	r16
     764:	f7 94       	ror	r15
     766:	e7 94       	ror	r14
     768:	8a 95       	dec	r24
     76a:	d1 f7       	brne	.-12     	; 0x760 <__pack_f+0x164>
     76c:	05 c0       	rjmp	.+10     	; 0x778 <__pack_f+0x17c>
     76e:	ee 24       	eor	r14, r14
     770:	ff 24       	eor	r15, r15
     772:	87 01       	movw	r16, r14
     774:	ef ef       	ldi	r30, 0xFF	; 255
     776:	f0 e0       	ldi	r31, 0x00	; 0
     778:	6e 2f       	mov	r22, r30
     77a:	67 95       	ror	r22
     77c:	66 27       	eor	r22, r22
     77e:	67 95       	ror	r22
     780:	90 2f       	mov	r25, r16
     782:	9f 77       	andi	r25, 0x7F	; 127
     784:	d7 94       	ror	r13
     786:	dd 24       	eor	r13, r13
     788:	d7 94       	ror	r13
     78a:	8e 2f       	mov	r24, r30
     78c:	86 95       	lsr	r24
     78e:	49 2f       	mov	r20, r25
     790:	46 2b       	or	r20, r22
     792:	58 2f       	mov	r21, r24
     794:	5d 29       	or	r21, r13
     796:	b7 01       	movw	r22, r14
     798:	ca 01       	movw	r24, r20
     79a:	1f 91       	pop	r17
     79c:	0f 91       	pop	r16
     79e:	ff 90       	pop	r15
     7a0:	ef 90       	pop	r14
     7a2:	df 90       	pop	r13
     7a4:	08 95       	ret

000007a6 <__unpack_f>:
     7a6:	fc 01       	movw	r30, r24
     7a8:	db 01       	movw	r26, r22
     7aa:	40 81       	ld	r20, Z
     7ac:	51 81       	ldd	r21, Z+1	; 0x01
     7ae:	22 81       	ldd	r18, Z+2	; 0x02
     7b0:	62 2f       	mov	r22, r18
     7b2:	6f 77       	andi	r22, 0x7F	; 127
     7b4:	70 e0       	ldi	r23, 0x00	; 0
     7b6:	22 1f       	adc	r18, r18
     7b8:	22 27       	eor	r18, r18
     7ba:	22 1f       	adc	r18, r18
     7bc:	93 81       	ldd	r25, Z+3	; 0x03
     7be:	89 2f       	mov	r24, r25
     7c0:	88 0f       	add	r24, r24
     7c2:	82 2b       	or	r24, r18
     7c4:	28 2f       	mov	r18, r24
     7c6:	30 e0       	ldi	r19, 0x00	; 0
     7c8:	99 1f       	adc	r25, r25
     7ca:	99 27       	eor	r25, r25
     7cc:	99 1f       	adc	r25, r25
     7ce:	11 96       	adiw	r26, 0x01	; 1
     7d0:	9c 93       	st	X, r25
     7d2:	11 97       	sbiw	r26, 0x01	; 1
     7d4:	21 15       	cp	r18, r1
     7d6:	31 05       	cpc	r19, r1
     7d8:	a9 f5       	brne	.+106    	; 0x844 <__unpack_f+0x9e>
     7da:	41 15       	cp	r20, r1
     7dc:	51 05       	cpc	r21, r1
     7de:	61 05       	cpc	r22, r1
     7e0:	71 05       	cpc	r23, r1
     7e2:	11 f4       	brne	.+4      	; 0x7e8 <__unpack_f+0x42>
     7e4:	82 e0       	ldi	r24, 0x02	; 2
     7e6:	37 c0       	rjmp	.+110    	; 0x856 <__unpack_f+0xb0>
     7e8:	82 e8       	ldi	r24, 0x82	; 130
     7ea:	9f ef       	ldi	r25, 0xFF	; 255
     7ec:	13 96       	adiw	r26, 0x03	; 3
     7ee:	9c 93       	st	X, r25
     7f0:	8e 93       	st	-X, r24
     7f2:	12 97       	sbiw	r26, 0x02	; 2
     7f4:	9a 01       	movw	r18, r20
     7f6:	ab 01       	movw	r20, r22
     7f8:	67 e0       	ldi	r22, 0x07	; 7
     7fa:	22 0f       	add	r18, r18
     7fc:	33 1f       	adc	r19, r19
     7fe:	44 1f       	adc	r20, r20
     800:	55 1f       	adc	r21, r21
     802:	6a 95       	dec	r22
     804:	d1 f7       	brne	.-12     	; 0x7fa <__unpack_f+0x54>
     806:	83 e0       	ldi	r24, 0x03	; 3
     808:	8c 93       	st	X, r24
     80a:	0d c0       	rjmp	.+26     	; 0x826 <__unpack_f+0x80>
     80c:	22 0f       	add	r18, r18
     80e:	33 1f       	adc	r19, r19
     810:	44 1f       	adc	r20, r20
     812:	55 1f       	adc	r21, r21
     814:	12 96       	adiw	r26, 0x02	; 2
     816:	8d 91       	ld	r24, X+
     818:	9c 91       	ld	r25, X
     81a:	13 97       	sbiw	r26, 0x03	; 3
     81c:	01 97       	sbiw	r24, 0x01	; 1
     81e:	13 96       	adiw	r26, 0x03	; 3
     820:	9c 93       	st	X, r25
     822:	8e 93       	st	-X, r24
     824:	12 97       	sbiw	r26, 0x02	; 2
     826:	20 30       	cpi	r18, 0x00	; 0
     828:	80 e0       	ldi	r24, 0x00	; 0
     82a:	38 07       	cpc	r19, r24
     82c:	80 e0       	ldi	r24, 0x00	; 0
     82e:	48 07       	cpc	r20, r24
     830:	80 e4       	ldi	r24, 0x40	; 64
     832:	58 07       	cpc	r21, r24
     834:	58 f3       	brcs	.-42     	; 0x80c <__unpack_f+0x66>
     836:	14 96       	adiw	r26, 0x04	; 4
     838:	2d 93       	st	X+, r18
     83a:	3d 93       	st	X+, r19
     83c:	4d 93       	st	X+, r20
     83e:	5c 93       	st	X, r21
     840:	17 97       	sbiw	r26, 0x07	; 7
     842:	08 95       	ret
     844:	2f 3f       	cpi	r18, 0xFF	; 255
     846:	31 05       	cpc	r19, r1
     848:	79 f4       	brne	.+30     	; 0x868 <__unpack_f+0xc2>
     84a:	41 15       	cp	r20, r1
     84c:	51 05       	cpc	r21, r1
     84e:	61 05       	cpc	r22, r1
     850:	71 05       	cpc	r23, r1
     852:	19 f4       	brne	.+6      	; 0x85a <__unpack_f+0xb4>
     854:	84 e0       	ldi	r24, 0x04	; 4
     856:	8c 93       	st	X, r24
     858:	08 95       	ret
     85a:	64 ff       	sbrs	r22, 4
     85c:	03 c0       	rjmp	.+6      	; 0x864 <__unpack_f+0xbe>
     85e:	81 e0       	ldi	r24, 0x01	; 1
     860:	8c 93       	st	X, r24
     862:	12 c0       	rjmp	.+36     	; 0x888 <__unpack_f+0xe2>
     864:	1c 92       	st	X, r1
     866:	10 c0       	rjmp	.+32     	; 0x888 <__unpack_f+0xe2>
     868:	2f 57       	subi	r18, 0x7F	; 127
     86a:	30 40       	sbci	r19, 0x00	; 0
     86c:	13 96       	adiw	r26, 0x03	; 3
     86e:	3c 93       	st	X, r19
     870:	2e 93       	st	-X, r18
     872:	12 97       	sbiw	r26, 0x02	; 2
     874:	83 e0       	ldi	r24, 0x03	; 3
     876:	8c 93       	st	X, r24
     878:	87 e0       	ldi	r24, 0x07	; 7
     87a:	44 0f       	add	r20, r20
     87c:	55 1f       	adc	r21, r21
     87e:	66 1f       	adc	r22, r22
     880:	77 1f       	adc	r23, r23
     882:	8a 95       	dec	r24
     884:	d1 f7       	brne	.-12     	; 0x87a <__unpack_f+0xd4>
     886:	70 64       	ori	r23, 0x40	; 64
     888:	14 96       	adiw	r26, 0x04	; 4
     88a:	4d 93       	st	X+, r20
     88c:	5d 93       	st	X+, r21
     88e:	6d 93       	st	X+, r22
     890:	7c 93       	st	X, r23
     892:	17 97       	sbiw	r26, 0x07	; 7
     894:	08 95       	ret

00000896 <vfprintf>:
     896:	a1 e1       	ldi	r26, 0x11	; 17
     898:	b0 e0       	ldi	r27, 0x00	; 0
     89a:	e1 e5       	ldi	r30, 0x51	; 81
     89c:	f4 e0       	ldi	r31, 0x04	; 4
     89e:	0c 94 ee 09 	jmp	0x13dc	; 0x13dc <__prologue_saves__>
     8a2:	3c 01       	movw	r6, r24
     8a4:	7f 87       	std	Y+15, r23	; 0x0f
     8a6:	6e 87       	std	Y+14, r22	; 0x0e
     8a8:	6a 01       	movw	r12, r20
     8aa:	fc 01       	movw	r30, r24
     8ac:	17 82       	std	Z+7, r1	; 0x07
     8ae:	16 82       	std	Z+6, r1	; 0x06
     8b0:	83 81       	ldd	r24, Z+3	; 0x03
     8b2:	81 fd       	sbrc	r24, 1
     8b4:	03 c0       	rjmp	.+6      	; 0x8bc <vfprintf+0x26>
     8b6:	6f ef       	ldi	r22, 0xFF	; 255
     8b8:	7f ef       	ldi	r23, 0xFF	; 255
     8ba:	6f c3       	rjmp	.+1758   	; 0xf9a <vfprintf+0x704>
     8bc:	9e 01       	movw	r18, r28
     8be:	2f 5f       	subi	r18, 0xFF	; 255
     8c0:	3f 4f       	sbci	r19, 0xFF	; 255
     8c2:	39 8b       	std	Y+17, r19	; 0x11
     8c4:	28 8b       	std	Y+16, r18	; 0x10
     8c6:	f3 01       	movw	r30, r6
     8c8:	23 81       	ldd	r18, Z+3	; 0x03
     8ca:	ee 85       	ldd	r30, Y+14	; 0x0e
     8cc:	ff 85       	ldd	r31, Y+15	; 0x0f
     8ce:	23 fd       	sbrc	r18, 3
     8d0:	85 91       	lpm	r24, Z+
     8d2:	23 ff       	sbrs	r18, 3
     8d4:	81 91       	ld	r24, Z+
     8d6:	ff 87       	std	Y+15, r31	; 0x0f
     8d8:	ee 87       	std	Y+14, r30	; 0x0e
     8da:	88 23       	and	r24, r24
     8dc:	09 f4       	brne	.+2      	; 0x8e0 <vfprintf+0x4a>
     8de:	5a c3       	rjmp	.+1716   	; 0xf94 <vfprintf+0x6fe>
     8e0:	85 32       	cpi	r24, 0x25	; 37
     8e2:	51 f4       	brne	.+20     	; 0x8f8 <vfprintf+0x62>
     8e4:	ee 85       	ldd	r30, Y+14	; 0x0e
     8e6:	ff 85       	ldd	r31, Y+15	; 0x0f
     8e8:	23 fd       	sbrc	r18, 3
     8ea:	85 91       	lpm	r24, Z+
     8ec:	23 ff       	sbrs	r18, 3
     8ee:	81 91       	ld	r24, Z+
     8f0:	ff 87       	std	Y+15, r31	; 0x0f
     8f2:	ee 87       	std	Y+14, r30	; 0x0e
     8f4:	85 32       	cpi	r24, 0x25	; 37
     8f6:	29 f4       	brne	.+10     	; 0x902 <vfprintf+0x6c>
     8f8:	90 e0       	ldi	r25, 0x00	; 0
     8fa:	b3 01       	movw	r22, r6
     8fc:	0e 94 13 0b 	call	0x1626	; 0x1626 <fputc>
     900:	e2 cf       	rjmp	.-60     	; 0x8c6 <vfprintf+0x30>
     902:	98 2f       	mov	r25, r24
     904:	10 e0       	ldi	r17, 0x00	; 0
     906:	88 24       	eor	r8, r8
     908:	99 24       	eor	r9, r9
     90a:	10 32       	cpi	r17, 0x20	; 32
     90c:	b0 f4       	brcc	.+44     	; 0x93a <vfprintf+0xa4>
     90e:	9b 32       	cpi	r25, 0x2B	; 43
     910:	69 f0       	breq	.+26     	; 0x92c <vfprintf+0x96>
     912:	9c 32       	cpi	r25, 0x2C	; 44
     914:	28 f4       	brcc	.+10     	; 0x920 <vfprintf+0x8a>
     916:	90 32       	cpi	r25, 0x20	; 32
     918:	51 f0       	breq	.+20     	; 0x92e <vfprintf+0x98>
     91a:	93 32       	cpi	r25, 0x23	; 35
     91c:	71 f4       	brne	.+28     	; 0x93a <vfprintf+0xa4>
     91e:	0b c0       	rjmp	.+22     	; 0x936 <vfprintf+0xa0>
     920:	9d 32       	cpi	r25, 0x2D	; 45
     922:	39 f0       	breq	.+14     	; 0x932 <vfprintf+0x9c>
     924:	90 33       	cpi	r25, 0x30	; 48
     926:	49 f4       	brne	.+18     	; 0x93a <vfprintf+0xa4>
     928:	11 60       	ori	r17, 0x01	; 1
     92a:	28 c0       	rjmp	.+80     	; 0x97c <vfprintf+0xe6>
     92c:	12 60       	ori	r17, 0x02	; 2
     92e:	14 60       	ori	r17, 0x04	; 4
     930:	25 c0       	rjmp	.+74     	; 0x97c <vfprintf+0xe6>
     932:	18 60       	ori	r17, 0x08	; 8
     934:	23 c0       	rjmp	.+70     	; 0x97c <vfprintf+0xe6>
     936:	10 61       	ori	r17, 0x10	; 16
     938:	21 c0       	rjmp	.+66     	; 0x97c <vfprintf+0xe6>
     93a:	17 fd       	sbrc	r17, 7
     93c:	2a c0       	rjmp	.+84     	; 0x992 <vfprintf+0xfc>
     93e:	89 2f       	mov	r24, r25
     940:	80 53       	subi	r24, 0x30	; 48
     942:	8a 30       	cpi	r24, 0x0A	; 10
     944:	78 f4       	brcc	.+30     	; 0x964 <vfprintf+0xce>
     946:	16 ff       	sbrs	r17, 6
     948:	06 c0       	rjmp	.+12     	; 0x956 <vfprintf+0xc0>
     94a:	fa e0       	ldi	r31, 0x0A	; 10
     94c:	9f 9e       	mul	r9, r31
     94e:	90 2c       	mov	r9, r0
     950:	11 24       	eor	r1, r1
     952:	98 0e       	add	r9, r24
     954:	13 c0       	rjmp	.+38     	; 0x97c <vfprintf+0xe6>
     956:	3a e0       	ldi	r19, 0x0A	; 10
     958:	83 9e       	mul	r8, r19
     95a:	80 2c       	mov	r8, r0
     95c:	11 24       	eor	r1, r1
     95e:	88 0e       	add	r8, r24
     960:	10 62       	ori	r17, 0x20	; 32
     962:	0c c0       	rjmp	.+24     	; 0x97c <vfprintf+0xe6>
     964:	9e 32       	cpi	r25, 0x2E	; 46
     966:	21 f4       	brne	.+8      	; 0x970 <vfprintf+0xda>
     968:	16 fd       	sbrc	r17, 6
     96a:	14 c3       	rjmp	.+1576   	; 0xf94 <vfprintf+0x6fe>
     96c:	10 64       	ori	r17, 0x40	; 64
     96e:	06 c0       	rjmp	.+12     	; 0x97c <vfprintf+0xe6>
     970:	9c 36       	cpi	r25, 0x6C	; 108
     972:	11 f4       	brne	.+4      	; 0x978 <vfprintf+0xe2>
     974:	10 68       	ori	r17, 0x80	; 128
     976:	02 c0       	rjmp	.+4      	; 0x97c <vfprintf+0xe6>
     978:	98 36       	cpi	r25, 0x68	; 104
     97a:	59 f4       	brne	.+22     	; 0x992 <vfprintf+0xfc>
     97c:	ee 85       	ldd	r30, Y+14	; 0x0e
     97e:	ff 85       	ldd	r31, Y+15	; 0x0f
     980:	23 fd       	sbrc	r18, 3
     982:	95 91       	lpm	r25, Z+
     984:	23 ff       	sbrs	r18, 3
     986:	91 91       	ld	r25, Z+
     988:	ff 87       	std	Y+15, r31	; 0x0f
     98a:	ee 87       	std	Y+14, r30	; 0x0e
     98c:	99 23       	and	r25, r25
     98e:	09 f0       	breq	.+2      	; 0x992 <vfprintf+0xfc>
     990:	bc cf       	rjmp	.-136    	; 0x90a <vfprintf+0x74>
     992:	89 2f       	mov	r24, r25
     994:	85 54       	subi	r24, 0x45	; 69
     996:	83 30       	cpi	r24, 0x03	; 3
     998:	20 f4       	brcc	.+8      	; 0x9a2 <vfprintf+0x10c>
     99a:	81 2f       	mov	r24, r17
     99c:	80 61       	ori	r24, 0x10	; 16
     99e:	90 5e       	subi	r25, 0xE0	; 224
     9a0:	07 c0       	rjmp	.+14     	; 0x9b0 <vfprintf+0x11a>
     9a2:	89 2f       	mov	r24, r25
     9a4:	85 56       	subi	r24, 0x65	; 101
     9a6:	83 30       	cpi	r24, 0x03	; 3
     9a8:	08 f0       	brcs	.+2      	; 0x9ac <vfprintf+0x116>
     9aa:	9f c1       	rjmp	.+830    	; 0xcea <vfprintf+0x454>
     9ac:	81 2f       	mov	r24, r17
     9ae:	8f 7e       	andi	r24, 0xEF	; 239
     9b0:	86 fd       	sbrc	r24, 6
     9b2:	02 c0       	rjmp	.+4      	; 0x9b8 <vfprintf+0x122>
     9b4:	76 e0       	ldi	r23, 0x06	; 6
     9b6:	97 2e       	mov	r9, r23
     9b8:	6f e3       	ldi	r22, 0x3F	; 63
     9ba:	f6 2e       	mov	r15, r22
     9bc:	f8 22       	and	r15, r24
     9be:	95 36       	cpi	r25, 0x65	; 101
     9c0:	19 f4       	brne	.+6      	; 0x9c8 <vfprintf+0x132>
     9c2:	f0 e4       	ldi	r31, 0x40	; 64
     9c4:	ff 2a       	or	r15, r31
     9c6:	07 c0       	rjmp	.+14     	; 0x9d6 <vfprintf+0x140>
     9c8:	96 36       	cpi	r25, 0x66	; 102
     9ca:	19 f4       	brne	.+6      	; 0x9d2 <vfprintf+0x13c>
     9cc:	20 e8       	ldi	r18, 0x80	; 128
     9ce:	f2 2a       	or	r15, r18
     9d0:	02 c0       	rjmp	.+4      	; 0x9d6 <vfprintf+0x140>
     9d2:	91 10       	cpse	r9, r1
     9d4:	9a 94       	dec	r9
     9d6:	f7 fe       	sbrs	r15, 7
     9d8:	0a c0       	rjmp	.+20     	; 0x9ee <vfprintf+0x158>
     9da:	3b e3       	ldi	r19, 0x3B	; 59
     9dc:	39 15       	cp	r19, r9
     9de:	18 f4       	brcc	.+6      	; 0x9e6 <vfprintf+0x150>
     9e0:	5c e3       	ldi	r21, 0x3C	; 60
     9e2:	b5 2e       	mov	r11, r21
     9e4:	02 c0       	rjmp	.+4      	; 0x9ea <vfprintf+0x154>
     9e6:	b9 2c       	mov	r11, r9
     9e8:	b3 94       	inc	r11
     9ea:	27 e0       	ldi	r18, 0x07	; 7
     9ec:	09 c0       	rjmp	.+18     	; 0xa00 <vfprintf+0x16a>
     9ee:	47 e0       	ldi	r20, 0x07	; 7
     9f0:	49 15       	cp	r20, r9
     9f2:	20 f4       	brcc	.+8      	; 0x9fc <vfprintf+0x166>
     9f4:	bb 24       	eor	r11, r11
     9f6:	47 e0       	ldi	r20, 0x07	; 7
     9f8:	94 2e       	mov	r9, r20
     9fa:	f7 cf       	rjmp	.-18     	; 0x9ea <vfprintf+0x154>
     9fc:	29 2d       	mov	r18, r9
     9fe:	bb 24       	eor	r11, r11
     a00:	c6 01       	movw	r24, r12
     a02:	04 96       	adiw	r24, 0x04	; 4
     a04:	9d 87       	std	Y+13, r25	; 0x0d
     a06:	8c 87       	std	Y+12, r24	; 0x0c
     a08:	f6 01       	movw	r30, r12
     a0a:	60 81       	ld	r22, Z
     a0c:	71 81       	ldd	r23, Z+1	; 0x01
     a0e:	82 81       	ldd	r24, Z+2	; 0x02
     a10:	93 81       	ldd	r25, Z+3	; 0x03
     a12:	ae 01       	movw	r20, r28
     a14:	4f 5f       	subi	r20, 0xFF	; 255
     a16:	5f 4f       	sbci	r21, 0xFF	; 255
     a18:	0b 2d       	mov	r16, r11
     a1a:	0e 94 25 0a 	call	0x144a	; 0x144a <__ftoa_engine>
     a1e:	6c 01       	movw	r12, r24
     a20:	09 81       	ldd	r16, Y+1	; 0x01
     a22:	20 2e       	mov	r2, r16
     a24:	33 24       	eor	r3, r3
     a26:	00 ff       	sbrs	r16, 0
     a28:	04 c0       	rjmp	.+8      	; 0xa32 <vfprintf+0x19c>
     a2a:	03 fd       	sbrc	r16, 3
     a2c:	02 c0       	rjmp	.+4      	; 0xa32 <vfprintf+0x19c>
     a2e:	1d e2       	ldi	r17, 0x2D	; 45
     a30:	09 c0       	rjmp	.+18     	; 0xa44 <vfprintf+0x1ae>
     a32:	f1 fe       	sbrs	r15, 1
     a34:	02 c0       	rjmp	.+4      	; 0xa3a <vfprintf+0x1a4>
     a36:	1b e2       	ldi	r17, 0x2B	; 43
     a38:	05 c0       	rjmp	.+10     	; 0xa44 <vfprintf+0x1ae>
     a3a:	f2 fc       	sbrc	r15, 2
     a3c:	02 c0       	rjmp	.+4      	; 0xa42 <vfprintf+0x1ac>
     a3e:	10 e0       	ldi	r17, 0x00	; 0
     a40:	01 c0       	rjmp	.+2      	; 0xa44 <vfprintf+0x1ae>
     a42:	10 e2       	ldi	r17, 0x20	; 32
     a44:	c1 01       	movw	r24, r2
     a46:	8c 70       	andi	r24, 0x0C	; 12
     a48:	90 70       	andi	r25, 0x00	; 0
     a4a:	89 2b       	or	r24, r25
     a4c:	b9 f1       	breq	.+110    	; 0xabc <vfprintf+0x226>
     a4e:	11 23       	and	r17, r17
     a50:	11 f4       	brne	.+4      	; 0xa56 <vfprintf+0x1c0>
     a52:	83 e0       	ldi	r24, 0x03	; 3
     a54:	01 c0       	rjmp	.+2      	; 0xa58 <vfprintf+0x1c2>
     a56:	84 e0       	ldi	r24, 0x04	; 4
     a58:	88 15       	cp	r24, r8
     a5a:	10 f0       	brcs	.+4      	; 0xa60 <vfprintf+0x1ca>
     a5c:	88 24       	eor	r8, r8
     a5e:	0a c0       	rjmp	.+20     	; 0xa74 <vfprintf+0x1de>
     a60:	88 1a       	sub	r8, r24
     a62:	f3 fc       	sbrc	r15, 3
     a64:	07 c0       	rjmp	.+14     	; 0xa74 <vfprintf+0x1de>
     a66:	80 e2       	ldi	r24, 0x20	; 32
     a68:	90 e0       	ldi	r25, 0x00	; 0
     a6a:	b3 01       	movw	r22, r6
     a6c:	0e 94 13 0b 	call	0x1626	; 0x1626 <fputc>
     a70:	8a 94       	dec	r8
     a72:	c9 f7       	brne	.-14     	; 0xa66 <vfprintf+0x1d0>
     a74:	11 23       	and	r17, r17
     a76:	29 f0       	breq	.+10     	; 0xa82 <vfprintf+0x1ec>
     a78:	81 2f       	mov	r24, r17
     a7a:	90 e0       	ldi	r25, 0x00	; 0
     a7c:	b3 01       	movw	r22, r6
     a7e:	0e 94 13 0b 	call	0x1626	; 0x1626 <fputc>
     a82:	23 fe       	sbrs	r2, 3
     a84:	03 c0       	rjmp	.+6      	; 0xa8c <vfprintf+0x1f6>
     a86:	0c e7       	ldi	r16, 0x7C	; 124
     a88:	10 e0       	ldi	r17, 0x00	; 0
     a8a:	0e c0       	rjmp	.+28     	; 0xaa8 <vfprintf+0x212>
     a8c:	00 e8       	ldi	r16, 0x80	; 128
     a8e:	10 e0       	ldi	r17, 0x00	; 0
     a90:	0b c0       	rjmp	.+22     	; 0xaa8 <vfprintf+0x212>
     a92:	e1 14       	cp	r14, r1
     a94:	f1 04       	cpc	r15, r1
     a96:	09 f0       	breq	.+2      	; 0xa9a <vfprintf+0x204>
     a98:	80 52       	subi	r24, 0x20	; 32
     a9a:	90 e0       	ldi	r25, 0x00	; 0
     a9c:	b3 01       	movw	r22, r6
     a9e:	0e 94 13 0b 	call	0x1626	; 0x1626 <fputc>
     aa2:	0f 5f       	subi	r16, 0xFF	; 255
     aa4:	1f 4f       	sbci	r17, 0xFF	; 255
     aa6:	05 c0       	rjmp	.+10     	; 0xab2 <vfprintf+0x21c>
     aa8:	ef 2c       	mov	r14, r15
     aaa:	ff 24       	eor	r15, r15
     aac:	f0 e1       	ldi	r31, 0x10	; 16
     aae:	ef 22       	and	r14, r31
     ab0:	ff 24       	eor	r15, r15
     ab2:	f8 01       	movw	r30, r16
     ab4:	84 91       	lpm	r24, Z+
     ab6:	88 23       	and	r24, r24
     ab8:	61 f7       	brne	.-40     	; 0xa92 <vfprintf+0x1fc>
     aba:	14 c1       	rjmp	.+552    	; 0xce4 <vfprintf+0x44e>
     abc:	f7 fe       	sbrs	r15, 7
     abe:	12 c0       	rjmp	.+36     	; 0xae4 <vfprintf+0x24e>
     ac0:	bc 0c       	add	r11, r12
     ac2:	24 fe       	sbrs	r2, 4
     ac4:	04 c0       	rjmp	.+8      	; 0xace <vfprintf+0x238>
     ac6:	8a 81       	ldd	r24, Y+2	; 0x02
     ac8:	81 33       	cpi	r24, 0x31	; 49
     aca:	09 f4       	brne	.+2      	; 0xace <vfprintf+0x238>
     acc:	ba 94       	dec	r11
     ace:	1b 14       	cp	r1, r11
     ad0:	1c f0       	brlt	.+6      	; 0xad8 <vfprintf+0x242>
     ad2:	bb 24       	eor	r11, r11
     ad4:	b3 94       	inc	r11
     ad6:	2d c0       	rjmp	.+90     	; 0xb32 <vfprintf+0x29c>
     ad8:	f8 e0       	ldi	r31, 0x08	; 8
     ada:	fb 15       	cp	r31, r11
     adc:	50 f5       	brcc	.+84     	; 0xb32 <vfprintf+0x29c>
     ade:	38 e0       	ldi	r19, 0x08	; 8
     ae0:	b3 2e       	mov	r11, r19
     ae2:	27 c0       	rjmp	.+78     	; 0xb32 <vfprintf+0x29c>
     ae4:	f6 fc       	sbrc	r15, 6
     ae6:	25 c0       	rjmp	.+74     	; 0xb32 <vfprintf+0x29c>
     ae8:	89 2d       	mov	r24, r9
     aea:	90 e0       	ldi	r25, 0x00	; 0
     aec:	8c 15       	cp	r24, r12
     aee:	9d 05       	cpc	r25, r13
     af0:	4c f0       	brlt	.+18     	; 0xb04 <vfprintf+0x26e>
     af2:	2c ef       	ldi	r18, 0xFC	; 252
     af4:	c2 16       	cp	r12, r18
     af6:	2f ef       	ldi	r18, 0xFF	; 255
     af8:	d2 06       	cpc	r13, r18
     afa:	24 f0       	brlt	.+8      	; 0xb04 <vfprintf+0x26e>
     afc:	30 e8       	ldi	r19, 0x80	; 128
     afe:	f3 2a       	or	r15, r19
     b00:	01 c0       	rjmp	.+2      	; 0xb04 <vfprintf+0x26e>
     b02:	9a 94       	dec	r9
     b04:	99 20       	and	r9, r9
     b06:	49 f0       	breq	.+18     	; 0xb1a <vfprintf+0x284>
     b08:	e2 e0       	ldi	r30, 0x02	; 2
     b0a:	f0 e0       	ldi	r31, 0x00	; 0
     b0c:	ec 0f       	add	r30, r28
     b0e:	fd 1f       	adc	r31, r29
     b10:	e9 0d       	add	r30, r9
     b12:	f1 1d       	adc	r31, r1
     b14:	80 81       	ld	r24, Z
     b16:	80 33       	cpi	r24, 0x30	; 48
     b18:	a1 f3       	breq	.-24     	; 0xb02 <vfprintf+0x26c>
     b1a:	f7 fe       	sbrs	r15, 7
     b1c:	0a c0       	rjmp	.+20     	; 0xb32 <vfprintf+0x29c>
     b1e:	b9 2c       	mov	r11, r9
     b20:	b3 94       	inc	r11
     b22:	89 2d       	mov	r24, r9
     b24:	90 e0       	ldi	r25, 0x00	; 0
     b26:	c8 16       	cp	r12, r24
     b28:	d9 06       	cpc	r13, r25
     b2a:	14 f0       	brlt	.+4      	; 0xb30 <vfprintf+0x29a>
     b2c:	99 24       	eor	r9, r9
     b2e:	01 c0       	rjmp	.+2      	; 0xb32 <vfprintf+0x29c>
     b30:	9c 18       	sub	r9, r12
     b32:	f7 fc       	sbrc	r15, 7
     b34:	03 c0       	rjmp	.+6      	; 0xb3c <vfprintf+0x2a6>
     b36:	25 e0       	ldi	r18, 0x05	; 5
     b38:	30 e0       	ldi	r19, 0x00	; 0
     b3a:	09 c0       	rjmp	.+18     	; 0xb4e <vfprintf+0x2b8>
     b3c:	1c 14       	cp	r1, r12
     b3e:	1d 04       	cpc	r1, r13
     b40:	1c f0       	brlt	.+6      	; 0xb48 <vfprintf+0x2b2>
     b42:	21 e0       	ldi	r18, 0x01	; 1
     b44:	30 e0       	ldi	r19, 0x00	; 0
     b46:	03 c0       	rjmp	.+6      	; 0xb4e <vfprintf+0x2b8>
     b48:	96 01       	movw	r18, r12
     b4a:	2f 5f       	subi	r18, 0xFF	; 255
     b4c:	3f 4f       	sbci	r19, 0xFF	; 255
     b4e:	11 23       	and	r17, r17
     b50:	11 f0       	breq	.+4      	; 0xb56 <vfprintf+0x2c0>
     b52:	2f 5f       	subi	r18, 0xFF	; 255
     b54:	3f 4f       	sbci	r19, 0xFF	; 255
     b56:	99 20       	and	r9, r9
     b58:	29 f0       	breq	.+10     	; 0xb64 <vfprintf+0x2ce>
     b5a:	89 2d       	mov	r24, r9
     b5c:	90 e0       	ldi	r25, 0x00	; 0
     b5e:	01 96       	adiw	r24, 0x01	; 1
     b60:	28 0f       	add	r18, r24
     b62:	39 1f       	adc	r19, r25
     b64:	88 2d       	mov	r24, r8
     b66:	90 e0       	ldi	r25, 0x00	; 0
     b68:	28 17       	cp	r18, r24
     b6a:	39 07       	cpc	r19, r25
     b6c:	14 f0       	brlt	.+4      	; 0xb72 <vfprintf+0x2dc>
     b6e:	88 24       	eor	r8, r8
     b70:	01 c0       	rjmp	.+2      	; 0xb74 <vfprintf+0x2de>
     b72:	82 1a       	sub	r8, r18
     b74:	4f 2c       	mov	r4, r15
     b76:	55 24       	eor	r5, r5
     b78:	c2 01       	movw	r24, r4
     b7a:	89 70       	andi	r24, 0x09	; 9
     b7c:	90 70       	andi	r25, 0x00	; 0
     b7e:	89 2b       	or	r24, r25
     b80:	39 f0       	breq	.+14     	; 0xb90 <vfprintf+0x2fa>
     b82:	08 c0       	rjmp	.+16     	; 0xb94 <vfprintf+0x2fe>
     b84:	80 e2       	ldi	r24, 0x20	; 32
     b86:	90 e0       	ldi	r25, 0x00	; 0
     b88:	b3 01       	movw	r22, r6
     b8a:	0e 94 13 0b 	call	0x1626	; 0x1626 <fputc>
     b8e:	8a 94       	dec	r8
     b90:	88 20       	and	r8, r8
     b92:	c1 f7       	brne	.-16     	; 0xb84 <vfprintf+0x2ee>
     b94:	11 23       	and	r17, r17
     b96:	29 f0       	breq	.+10     	; 0xba2 <vfprintf+0x30c>
     b98:	81 2f       	mov	r24, r17
     b9a:	90 e0       	ldi	r25, 0x00	; 0
     b9c:	b3 01       	movw	r22, r6
     b9e:	0e 94 13 0b 	call	0x1626	; 0x1626 <fputc>
     ba2:	43 fe       	sbrs	r4, 3
     ba4:	07 c0       	rjmp	.+14     	; 0xbb4 <vfprintf+0x31e>
     ba6:	08 c0       	rjmp	.+16     	; 0xbb8 <vfprintf+0x322>
     ba8:	80 e3       	ldi	r24, 0x30	; 48
     baa:	90 e0       	ldi	r25, 0x00	; 0
     bac:	b3 01       	movw	r22, r6
     bae:	0e 94 13 0b 	call	0x1626	; 0x1626 <fputc>
     bb2:	8a 94       	dec	r8
     bb4:	88 20       	and	r8, r8
     bb6:	c1 f7       	brne	.-16     	; 0xba8 <vfprintf+0x312>
     bb8:	f7 fe       	sbrs	r15, 7
     bba:	46 c0       	rjmp	.+140    	; 0xc48 <vfprintf+0x3b2>
     bbc:	86 01       	movw	r16, r12
     bbe:	d7 fe       	sbrs	r13, 7
     bc0:	02 c0       	rjmp	.+4      	; 0xbc6 <vfprintf+0x330>
     bc2:	00 e0       	ldi	r16, 0x00	; 0
     bc4:	10 e0       	ldi	r17, 0x00	; 0
     bc6:	76 01       	movw	r14, r12
     bc8:	08 94       	sec
     bca:	e1 1c       	adc	r14, r1
     bcc:	f1 1c       	adc	r15, r1
     bce:	e0 1a       	sub	r14, r16
     bd0:	f1 0a       	sbc	r15, r17
     bd2:	41 e0       	ldi	r20, 0x01	; 1
     bd4:	50 e0       	ldi	r21, 0x00	; 0
     bd6:	4c 0f       	add	r20, r28
     bd8:	5d 1f       	adc	r21, r29
     bda:	e4 0e       	add	r14, r20
     bdc:	f5 1e       	adc	r15, r21
     bde:	26 01       	movw	r4, r12
     be0:	4b 18       	sub	r4, r11
     be2:	51 08       	sbc	r5, r1
     be4:	89 2d       	mov	r24, r9
     be6:	90 e0       	ldi	r25, 0x00	; 0
     be8:	aa 24       	eor	r10, r10
     bea:	bb 24       	eor	r11, r11
     bec:	a8 1a       	sub	r10, r24
     bee:	b9 0a       	sbc	r11, r25
     bf0:	5f ef       	ldi	r21, 0xFF	; 255
     bf2:	0f 3f       	cpi	r16, 0xFF	; 255
     bf4:	15 07       	cpc	r17, r21
     bf6:	29 f4       	brne	.+10     	; 0xc02 <vfprintf+0x36c>
     bf8:	8e e2       	ldi	r24, 0x2E	; 46
     bfa:	90 e0       	ldi	r25, 0x00	; 0
     bfc:	b3 01       	movw	r22, r6
     bfe:	0e 94 13 0b 	call	0x1626	; 0x1626 <fputc>
     c02:	c0 16       	cp	r12, r16
     c04:	d1 06       	cpc	r13, r17
     c06:	34 f0       	brlt	.+12     	; 0xc14 <vfprintf+0x37e>
     c08:	40 16       	cp	r4, r16
     c0a:	51 06       	cpc	r5, r17
     c0c:	1c f4       	brge	.+6      	; 0xc14 <vfprintf+0x37e>
     c0e:	f7 01       	movw	r30, r14
     c10:	80 81       	ld	r24, Z
     c12:	01 c0       	rjmp	.+2      	; 0xc16 <vfprintf+0x380>
     c14:	80 e3       	ldi	r24, 0x30	; 48
     c16:	01 50       	subi	r16, 0x01	; 1
     c18:	10 40       	sbci	r17, 0x00	; 0
     c1a:	08 94       	sec
     c1c:	e1 1c       	adc	r14, r1
     c1e:	f1 1c       	adc	r15, r1
     c20:	0a 15       	cp	r16, r10
     c22:	1b 05       	cpc	r17, r11
     c24:	2c f0       	brlt	.+10     	; 0xc30 <vfprintf+0x39a>
     c26:	90 e0       	ldi	r25, 0x00	; 0
     c28:	b3 01       	movw	r22, r6
     c2a:	0e 94 13 0b 	call	0x1626	; 0x1626 <fputc>
     c2e:	e0 cf       	rjmp	.-64     	; 0xbf0 <vfprintf+0x35a>
     c30:	0c 15       	cp	r16, r12
     c32:	1d 05       	cpc	r17, r13
     c34:	39 f4       	brne	.+14     	; 0xc44 <vfprintf+0x3ae>
     c36:	9a 81       	ldd	r25, Y+2	; 0x02
     c38:	96 33       	cpi	r25, 0x36	; 54
     c3a:	18 f4       	brcc	.+6      	; 0xc42 <vfprintf+0x3ac>
     c3c:	95 33       	cpi	r25, 0x35	; 53
     c3e:	11 f4       	brne	.+4      	; 0xc44 <vfprintf+0x3ae>
     c40:	24 fe       	sbrs	r2, 4
     c42:	81 e3       	ldi	r24, 0x31	; 49
     c44:	90 e0       	ldi	r25, 0x00	; 0
     c46:	4b c0       	rjmp	.+150    	; 0xcde <vfprintf+0x448>
     c48:	8a 81       	ldd	r24, Y+2	; 0x02
     c4a:	81 33       	cpi	r24, 0x31	; 49
     c4c:	09 f0       	breq	.+2      	; 0xc50 <vfprintf+0x3ba>
     c4e:	0f 7e       	andi	r16, 0xEF	; 239
     c50:	90 e0       	ldi	r25, 0x00	; 0
     c52:	b3 01       	movw	r22, r6
     c54:	0e 94 13 0b 	call	0x1626	; 0x1626 <fputc>
     c58:	99 20       	and	r9, r9
     c5a:	a1 f0       	breq	.+40     	; 0xc84 <vfprintf+0x3ee>
     c5c:	8e e2       	ldi	r24, 0x2E	; 46
     c5e:	90 e0       	ldi	r25, 0x00	; 0
     c60:	b3 01       	movw	r22, r6
     c62:	0e 94 13 0b 	call	0x1626	; 0x1626 <fputc>
     c66:	12 e0       	ldi	r17, 0x02	; 2
     c68:	e1 e0       	ldi	r30, 0x01	; 1
     c6a:	f0 e0       	ldi	r31, 0x00	; 0
     c6c:	ec 0f       	add	r30, r28
     c6e:	fd 1f       	adc	r31, r29
     c70:	e1 0f       	add	r30, r17
     c72:	f1 1d       	adc	r31, r1
     c74:	1f 5f       	subi	r17, 0xFF	; 255
     c76:	80 81       	ld	r24, Z
     c78:	90 e0       	ldi	r25, 0x00	; 0
     c7a:	b3 01       	movw	r22, r6
     c7c:	0e 94 13 0b 	call	0x1626	; 0x1626 <fputc>
     c80:	9a 94       	dec	r9
     c82:	91 f7       	brne	.-28     	; 0xc68 <vfprintf+0x3d2>
     c84:	44 fc       	sbrc	r4, 4
     c86:	03 c0       	rjmp	.+6      	; 0xc8e <vfprintf+0x3f8>
     c88:	85 e6       	ldi	r24, 0x65	; 101
     c8a:	90 e0       	ldi	r25, 0x00	; 0
     c8c:	02 c0       	rjmp	.+4      	; 0xc92 <vfprintf+0x3fc>
     c8e:	85 e4       	ldi	r24, 0x45	; 69
     c90:	90 e0       	ldi	r25, 0x00	; 0
     c92:	b3 01       	movw	r22, r6
     c94:	0e 94 13 0b 	call	0x1626	; 0x1626 <fputc>
     c98:	d7 fc       	sbrc	r13, 7
     c9a:	05 c0       	rjmp	.+10     	; 0xca6 <vfprintf+0x410>
     c9c:	c1 14       	cp	r12, r1
     c9e:	d1 04       	cpc	r13, r1
     ca0:	41 f4       	brne	.+16     	; 0xcb2 <vfprintf+0x41c>
     ca2:	04 ff       	sbrs	r16, 4
     ca4:	06 c0       	rjmp	.+12     	; 0xcb2 <vfprintf+0x41c>
     ca6:	d0 94       	com	r13
     ca8:	c1 94       	neg	r12
     caa:	d1 08       	sbc	r13, r1
     cac:	d3 94       	inc	r13
     cae:	8d e2       	ldi	r24, 0x2D	; 45
     cb0:	01 c0       	rjmp	.+2      	; 0xcb4 <vfprintf+0x41e>
     cb2:	8b e2       	ldi	r24, 0x2B	; 43
     cb4:	90 e0       	ldi	r25, 0x00	; 0
     cb6:	b3 01       	movw	r22, r6
     cb8:	0e 94 13 0b 	call	0x1626	; 0x1626 <fputc>
     cbc:	80 e3       	ldi	r24, 0x30	; 48
     cbe:	05 c0       	rjmp	.+10     	; 0xcca <vfprintf+0x434>
     cc0:	8f 5f       	subi	r24, 0xFF	; 255
     cc2:	26 ef       	ldi	r18, 0xF6	; 246
     cc4:	3f ef       	ldi	r19, 0xFF	; 255
     cc6:	c2 0e       	add	r12, r18
     cc8:	d3 1e       	adc	r13, r19
     cca:	3a e0       	ldi	r19, 0x0A	; 10
     ccc:	c3 16       	cp	r12, r19
     cce:	d1 04       	cpc	r13, r1
     cd0:	bc f7       	brge	.-18     	; 0xcc0 <vfprintf+0x42a>
     cd2:	90 e0       	ldi	r25, 0x00	; 0
     cd4:	b3 01       	movw	r22, r6
     cd6:	0e 94 13 0b 	call	0x1626	; 0x1626 <fputc>
     cda:	c6 01       	movw	r24, r12
     cdc:	c0 96       	adiw	r24, 0x30	; 48
     cde:	b3 01       	movw	r22, r6
     ce0:	0e 94 13 0b 	call	0x1626	; 0x1626 <fputc>
     ce4:	cc 84       	ldd	r12, Y+12	; 0x0c
     ce6:	dd 84       	ldd	r13, Y+13	; 0x0d
     ce8:	52 c1       	rjmp	.+676    	; 0xf8e <vfprintf+0x6f8>
     cea:	93 36       	cpi	r25, 0x63	; 99
     cec:	31 f0       	breq	.+12     	; 0xcfa <vfprintf+0x464>
     cee:	93 37       	cpi	r25, 0x73	; 115
     cf0:	99 f0       	breq	.+38     	; 0xd18 <vfprintf+0x482>
     cf2:	93 35       	cpi	r25, 0x53	; 83
     cf4:	09 f0       	breq	.+2      	; 0xcf8 <vfprintf+0x462>
     cf6:	59 c0       	rjmp	.+178    	; 0xdaa <vfprintf+0x514>
     cf8:	23 c0       	rjmp	.+70     	; 0xd40 <vfprintf+0x4aa>
     cfa:	f6 01       	movw	r30, r12
     cfc:	80 81       	ld	r24, Z
     cfe:	89 83       	std	Y+1, r24	; 0x01
     d00:	5e 01       	movw	r10, r28
     d02:	08 94       	sec
     d04:	a1 1c       	adc	r10, r1
     d06:	b1 1c       	adc	r11, r1
     d08:	22 e0       	ldi	r18, 0x02	; 2
     d0a:	30 e0       	ldi	r19, 0x00	; 0
     d0c:	c2 0e       	add	r12, r18
     d0e:	d3 1e       	adc	r13, r19
     d10:	21 e0       	ldi	r18, 0x01	; 1
     d12:	e2 2e       	mov	r14, r18
     d14:	f1 2c       	mov	r15, r1
     d16:	12 c0       	rjmp	.+36     	; 0xd3c <vfprintf+0x4a6>
     d18:	f6 01       	movw	r30, r12
     d1a:	a0 80       	ld	r10, Z
     d1c:	b1 80       	ldd	r11, Z+1	; 0x01
     d1e:	16 fd       	sbrc	r17, 6
     d20:	03 c0       	rjmp	.+6      	; 0xd28 <vfprintf+0x492>
     d22:	6f ef       	ldi	r22, 0xFF	; 255
     d24:	7f ef       	ldi	r23, 0xFF	; 255
     d26:	02 c0       	rjmp	.+4      	; 0xd2c <vfprintf+0x496>
     d28:	69 2d       	mov	r22, r9
     d2a:	70 e0       	ldi	r23, 0x00	; 0
     d2c:	22 e0       	ldi	r18, 0x02	; 2
     d2e:	30 e0       	ldi	r19, 0x00	; 0
     d30:	c2 0e       	add	r12, r18
     d32:	d3 1e       	adc	r13, r19
     d34:	c5 01       	movw	r24, r10
     d36:	0e 94 08 0b 	call	0x1610	; 0x1610 <strnlen>
     d3a:	7c 01       	movw	r14, r24
     d3c:	1f 77       	andi	r17, 0x7F	; 127
     d3e:	13 c0       	rjmp	.+38     	; 0xd66 <vfprintf+0x4d0>
     d40:	f6 01       	movw	r30, r12
     d42:	a0 80       	ld	r10, Z
     d44:	b1 80       	ldd	r11, Z+1	; 0x01
     d46:	16 fd       	sbrc	r17, 6
     d48:	03 c0       	rjmp	.+6      	; 0xd50 <vfprintf+0x4ba>
     d4a:	6f ef       	ldi	r22, 0xFF	; 255
     d4c:	7f ef       	ldi	r23, 0xFF	; 255
     d4e:	02 c0       	rjmp	.+4      	; 0xd54 <vfprintf+0x4be>
     d50:	69 2d       	mov	r22, r9
     d52:	70 e0       	ldi	r23, 0x00	; 0
     d54:	22 e0       	ldi	r18, 0x02	; 2
     d56:	30 e0       	ldi	r19, 0x00	; 0
     d58:	c2 0e       	add	r12, r18
     d5a:	d3 1e       	adc	r13, r19
     d5c:	c5 01       	movw	r24, r10
     d5e:	0e 94 fd 0a 	call	0x15fa	; 0x15fa <strnlen_P>
     d62:	7c 01       	movw	r14, r24
     d64:	10 68       	ori	r17, 0x80	; 128
     d66:	13 ff       	sbrs	r17, 3
     d68:	07 c0       	rjmp	.+14     	; 0xd78 <vfprintf+0x4e2>
     d6a:	1b c0       	rjmp	.+54     	; 0xda2 <vfprintf+0x50c>
     d6c:	80 e2       	ldi	r24, 0x20	; 32
     d6e:	90 e0       	ldi	r25, 0x00	; 0
     d70:	b3 01       	movw	r22, r6
     d72:	0e 94 13 0b 	call	0x1626	; 0x1626 <fputc>
     d76:	8a 94       	dec	r8
     d78:	88 2d       	mov	r24, r8
     d7a:	90 e0       	ldi	r25, 0x00	; 0
     d7c:	e8 16       	cp	r14, r24
     d7e:	f9 06       	cpc	r15, r25
     d80:	a8 f3       	brcs	.-22     	; 0xd6c <vfprintf+0x4d6>
     d82:	0f c0       	rjmp	.+30     	; 0xda2 <vfprintf+0x50c>
     d84:	f5 01       	movw	r30, r10
     d86:	17 fd       	sbrc	r17, 7
     d88:	85 91       	lpm	r24, Z+
     d8a:	17 ff       	sbrs	r17, 7
     d8c:	81 91       	ld	r24, Z+
     d8e:	5f 01       	movw	r10, r30
     d90:	90 e0       	ldi	r25, 0x00	; 0
     d92:	b3 01       	movw	r22, r6
     d94:	0e 94 13 0b 	call	0x1626	; 0x1626 <fputc>
     d98:	81 10       	cpse	r8, r1
     d9a:	8a 94       	dec	r8
     d9c:	08 94       	sec
     d9e:	e1 08       	sbc	r14, r1
     da0:	f1 08       	sbc	r15, r1
     da2:	e1 14       	cp	r14, r1
     da4:	f1 04       	cpc	r15, r1
     da6:	71 f7       	brne	.-36     	; 0xd84 <vfprintf+0x4ee>
     da8:	f2 c0       	rjmp	.+484    	; 0xf8e <vfprintf+0x6f8>
     daa:	94 36       	cpi	r25, 0x64	; 100
     dac:	11 f0       	breq	.+4      	; 0xdb2 <vfprintf+0x51c>
     dae:	99 36       	cpi	r25, 0x69	; 105
     db0:	89 f5       	brne	.+98     	; 0xe14 <vfprintf+0x57e>
     db2:	17 ff       	sbrs	r17, 7
     db4:	08 c0       	rjmp	.+16     	; 0xdc6 <vfprintf+0x530>
     db6:	f6 01       	movw	r30, r12
     db8:	20 81       	ld	r18, Z
     dba:	31 81       	ldd	r19, Z+1	; 0x01
     dbc:	42 81       	ldd	r20, Z+2	; 0x02
     dbe:	53 81       	ldd	r21, Z+3	; 0x03
     dc0:	84 e0       	ldi	r24, 0x04	; 4
     dc2:	90 e0       	ldi	r25, 0x00	; 0
     dc4:	0a c0       	rjmp	.+20     	; 0xdda <vfprintf+0x544>
     dc6:	f6 01       	movw	r30, r12
     dc8:	80 81       	ld	r24, Z
     dca:	91 81       	ldd	r25, Z+1	; 0x01
     dcc:	9c 01       	movw	r18, r24
     dce:	44 27       	eor	r20, r20
     dd0:	37 fd       	sbrc	r19, 7
     dd2:	40 95       	com	r20
     dd4:	54 2f       	mov	r21, r20
     dd6:	82 e0       	ldi	r24, 0x02	; 2
     dd8:	90 e0       	ldi	r25, 0x00	; 0
     dda:	c8 0e       	add	r12, r24
     ddc:	d9 1e       	adc	r13, r25
     dde:	9f e6       	ldi	r25, 0x6F	; 111
     de0:	f9 2e       	mov	r15, r25
     de2:	f1 22       	and	r15, r17
     de4:	57 ff       	sbrs	r21, 7
     de6:	09 c0       	rjmp	.+18     	; 0xdfa <vfprintf+0x564>
     de8:	50 95       	com	r21
     dea:	40 95       	com	r20
     dec:	30 95       	com	r19
     dee:	21 95       	neg	r18
     df0:	3f 4f       	sbci	r19, 0xFF	; 255
     df2:	4f 4f       	sbci	r20, 0xFF	; 255
     df4:	5f 4f       	sbci	r21, 0xFF	; 255
     df6:	90 e8       	ldi	r25, 0x80	; 128
     df8:	f9 2a       	or	r15, r25
     dfa:	ca 01       	movw	r24, r20
     dfc:	b9 01       	movw	r22, r18
     dfe:	ae 01       	movw	r20, r28
     e00:	4f 5f       	subi	r20, 0xFF	; 255
     e02:	5f 4f       	sbci	r21, 0xFF	; 255
     e04:	2a e0       	ldi	r18, 0x0A	; 10
     e06:	30 e0       	ldi	r19, 0x00	; 0
     e08:	0e 94 78 0b 	call	0x16f0	; 0x16f0 <__ultoa_invert>
     e0c:	e8 2e       	mov	r14, r24
     e0e:	e8 89       	ldd	r30, Y+16	; 0x10
     e10:	ee 1a       	sub	r14, r30
     e12:	41 c0       	rjmp	.+130    	; 0xe96 <vfprintf+0x600>
     e14:	95 37       	cpi	r25, 0x75	; 117
     e16:	21 f4       	brne	.+8      	; 0xe20 <vfprintf+0x58a>
     e18:	1f 7e       	andi	r17, 0xEF	; 239
     e1a:	2a e0       	ldi	r18, 0x0A	; 10
     e1c:	30 e0       	ldi	r19, 0x00	; 0
     e1e:	1c c0       	rjmp	.+56     	; 0xe58 <vfprintf+0x5c2>
     e20:	19 7f       	andi	r17, 0xF9	; 249
     e22:	9f 36       	cpi	r25, 0x6F	; 111
     e24:	61 f0       	breq	.+24     	; 0xe3e <vfprintf+0x5a8>
     e26:	90 37       	cpi	r25, 0x70	; 112
     e28:	20 f4       	brcc	.+8      	; 0xe32 <vfprintf+0x59c>
     e2a:	98 35       	cpi	r25, 0x58	; 88
     e2c:	09 f0       	breq	.+2      	; 0xe30 <vfprintf+0x59a>
     e2e:	b2 c0       	rjmp	.+356    	; 0xf94 <vfprintf+0x6fe>
     e30:	0f c0       	rjmp	.+30     	; 0xe50 <vfprintf+0x5ba>
     e32:	90 37       	cpi	r25, 0x70	; 112
     e34:	39 f0       	breq	.+14     	; 0xe44 <vfprintf+0x5ae>
     e36:	98 37       	cpi	r25, 0x78	; 120
     e38:	09 f0       	breq	.+2      	; 0xe3c <vfprintf+0x5a6>
     e3a:	ac c0       	rjmp	.+344    	; 0xf94 <vfprintf+0x6fe>
     e3c:	04 c0       	rjmp	.+8      	; 0xe46 <vfprintf+0x5b0>
     e3e:	28 e0       	ldi	r18, 0x08	; 8
     e40:	30 e0       	ldi	r19, 0x00	; 0
     e42:	0a c0       	rjmp	.+20     	; 0xe58 <vfprintf+0x5c2>
     e44:	10 61       	ori	r17, 0x10	; 16
     e46:	14 fd       	sbrc	r17, 4
     e48:	14 60       	ori	r17, 0x04	; 4
     e4a:	20 e1       	ldi	r18, 0x10	; 16
     e4c:	30 e0       	ldi	r19, 0x00	; 0
     e4e:	04 c0       	rjmp	.+8      	; 0xe58 <vfprintf+0x5c2>
     e50:	14 fd       	sbrc	r17, 4
     e52:	16 60       	ori	r17, 0x06	; 6
     e54:	20 e1       	ldi	r18, 0x10	; 16
     e56:	32 e0       	ldi	r19, 0x02	; 2
     e58:	17 ff       	sbrs	r17, 7
     e5a:	08 c0       	rjmp	.+16     	; 0xe6c <vfprintf+0x5d6>
     e5c:	f6 01       	movw	r30, r12
     e5e:	60 81       	ld	r22, Z
     e60:	71 81       	ldd	r23, Z+1	; 0x01
     e62:	82 81       	ldd	r24, Z+2	; 0x02
     e64:	93 81       	ldd	r25, Z+3	; 0x03
     e66:	44 e0       	ldi	r20, 0x04	; 4
     e68:	50 e0       	ldi	r21, 0x00	; 0
     e6a:	08 c0       	rjmp	.+16     	; 0xe7c <vfprintf+0x5e6>
     e6c:	f6 01       	movw	r30, r12
     e6e:	80 81       	ld	r24, Z
     e70:	91 81       	ldd	r25, Z+1	; 0x01
     e72:	bc 01       	movw	r22, r24
     e74:	80 e0       	ldi	r24, 0x00	; 0
     e76:	90 e0       	ldi	r25, 0x00	; 0
     e78:	42 e0       	ldi	r20, 0x02	; 2
     e7a:	50 e0       	ldi	r21, 0x00	; 0
     e7c:	c4 0e       	add	r12, r20
     e7e:	d5 1e       	adc	r13, r21
     e80:	ae 01       	movw	r20, r28
     e82:	4f 5f       	subi	r20, 0xFF	; 255
     e84:	5f 4f       	sbci	r21, 0xFF	; 255
     e86:	0e 94 78 0b 	call	0x16f0	; 0x16f0 <__ultoa_invert>
     e8a:	e8 2e       	mov	r14, r24
     e8c:	58 89       	ldd	r21, Y+16	; 0x10
     e8e:	e5 1a       	sub	r14, r21
     e90:	8f e7       	ldi	r24, 0x7F	; 127
     e92:	f8 2e       	mov	r15, r24
     e94:	f1 22       	and	r15, r17
     e96:	f6 fe       	sbrs	r15, 6
     e98:	0b c0       	rjmp	.+22     	; 0xeb0 <vfprintf+0x61a>
     e9a:	8e ef       	ldi	r24, 0xFE	; 254
     e9c:	f8 22       	and	r15, r24
     e9e:	e9 14       	cp	r14, r9
     ea0:	38 f4       	brcc	.+14     	; 0xeb0 <vfprintf+0x61a>
     ea2:	f4 fe       	sbrs	r15, 4
     ea4:	07 c0       	rjmp	.+14     	; 0xeb4 <vfprintf+0x61e>
     ea6:	f2 fc       	sbrc	r15, 2
     ea8:	05 c0       	rjmp	.+10     	; 0xeb4 <vfprintf+0x61e>
     eaa:	9f ee       	ldi	r25, 0xEF	; 239
     eac:	f9 22       	and	r15, r25
     eae:	02 c0       	rjmp	.+4      	; 0xeb4 <vfprintf+0x61e>
     eb0:	1e 2d       	mov	r17, r14
     eb2:	01 c0       	rjmp	.+2      	; 0xeb6 <vfprintf+0x620>
     eb4:	19 2d       	mov	r17, r9
     eb6:	f4 fe       	sbrs	r15, 4
     eb8:	0d c0       	rjmp	.+26     	; 0xed4 <vfprintf+0x63e>
     eba:	fe 01       	movw	r30, r28
     ebc:	ee 0d       	add	r30, r14
     ebe:	f1 1d       	adc	r31, r1
     ec0:	80 81       	ld	r24, Z
     ec2:	80 33       	cpi	r24, 0x30	; 48
     ec4:	19 f4       	brne	.+6      	; 0xecc <vfprintf+0x636>
     ec6:	e9 ee       	ldi	r30, 0xE9	; 233
     ec8:	fe 22       	and	r15, r30
     eca:	08 c0       	rjmp	.+16     	; 0xedc <vfprintf+0x646>
     ecc:	1f 5f       	subi	r17, 0xFF	; 255
     ece:	f2 fe       	sbrs	r15, 2
     ed0:	05 c0       	rjmp	.+10     	; 0xedc <vfprintf+0x646>
     ed2:	03 c0       	rjmp	.+6      	; 0xeda <vfprintf+0x644>
     ed4:	8f 2d       	mov	r24, r15
     ed6:	86 78       	andi	r24, 0x86	; 134
     ed8:	09 f0       	breq	.+2      	; 0xedc <vfprintf+0x646>
     eda:	1f 5f       	subi	r17, 0xFF	; 255
     edc:	0f 2d       	mov	r16, r15
     ede:	f3 fc       	sbrc	r15, 3
     ee0:	14 c0       	rjmp	.+40     	; 0xf0a <vfprintf+0x674>
     ee2:	f0 fe       	sbrs	r15, 0
     ee4:	0f c0       	rjmp	.+30     	; 0xf04 <vfprintf+0x66e>
     ee6:	18 15       	cp	r17, r8
     ee8:	10 f0       	brcs	.+4      	; 0xeee <vfprintf+0x658>
     eea:	9e 2c       	mov	r9, r14
     eec:	0b c0       	rjmp	.+22     	; 0xf04 <vfprintf+0x66e>
     eee:	9e 2c       	mov	r9, r14
     ef0:	98 0c       	add	r9, r8
     ef2:	91 1a       	sub	r9, r17
     ef4:	18 2d       	mov	r17, r8
     ef6:	06 c0       	rjmp	.+12     	; 0xf04 <vfprintf+0x66e>
     ef8:	80 e2       	ldi	r24, 0x20	; 32
     efa:	90 e0       	ldi	r25, 0x00	; 0
     efc:	b3 01       	movw	r22, r6
     efe:	0e 94 13 0b 	call	0x1626	; 0x1626 <fputc>
     f02:	1f 5f       	subi	r17, 0xFF	; 255
     f04:	18 15       	cp	r17, r8
     f06:	c0 f3       	brcs	.-16     	; 0xef8 <vfprintf+0x662>
     f08:	04 c0       	rjmp	.+8      	; 0xf12 <vfprintf+0x67c>
     f0a:	18 15       	cp	r17, r8
     f0c:	10 f4       	brcc	.+4      	; 0xf12 <vfprintf+0x67c>
     f0e:	81 1a       	sub	r8, r17
     f10:	01 c0       	rjmp	.+2      	; 0xf14 <vfprintf+0x67e>
     f12:	88 24       	eor	r8, r8
     f14:	04 ff       	sbrs	r16, 4
     f16:	0f c0       	rjmp	.+30     	; 0xf36 <vfprintf+0x6a0>
     f18:	80 e3       	ldi	r24, 0x30	; 48
     f1a:	90 e0       	ldi	r25, 0x00	; 0
     f1c:	b3 01       	movw	r22, r6
     f1e:	0e 94 13 0b 	call	0x1626	; 0x1626 <fputc>
     f22:	02 ff       	sbrs	r16, 2
     f24:	1d c0       	rjmp	.+58     	; 0xf60 <vfprintf+0x6ca>
     f26:	01 fd       	sbrc	r16, 1
     f28:	03 c0       	rjmp	.+6      	; 0xf30 <vfprintf+0x69a>
     f2a:	88 e7       	ldi	r24, 0x78	; 120
     f2c:	90 e0       	ldi	r25, 0x00	; 0
     f2e:	0e c0       	rjmp	.+28     	; 0xf4c <vfprintf+0x6b6>
     f30:	88 e5       	ldi	r24, 0x58	; 88
     f32:	90 e0       	ldi	r25, 0x00	; 0
     f34:	0b c0       	rjmp	.+22     	; 0xf4c <vfprintf+0x6b6>
     f36:	80 2f       	mov	r24, r16
     f38:	86 78       	andi	r24, 0x86	; 134
     f3a:	91 f0       	breq	.+36     	; 0xf60 <vfprintf+0x6ca>
     f3c:	01 ff       	sbrs	r16, 1
     f3e:	02 c0       	rjmp	.+4      	; 0xf44 <vfprintf+0x6ae>
     f40:	8b e2       	ldi	r24, 0x2B	; 43
     f42:	01 c0       	rjmp	.+2      	; 0xf46 <vfprintf+0x6b0>
     f44:	80 e2       	ldi	r24, 0x20	; 32
     f46:	f7 fc       	sbrc	r15, 7
     f48:	8d e2       	ldi	r24, 0x2D	; 45
     f4a:	90 e0       	ldi	r25, 0x00	; 0
     f4c:	b3 01       	movw	r22, r6
     f4e:	0e 94 13 0b 	call	0x1626	; 0x1626 <fputc>
     f52:	06 c0       	rjmp	.+12     	; 0xf60 <vfprintf+0x6ca>
     f54:	80 e3       	ldi	r24, 0x30	; 48
     f56:	90 e0       	ldi	r25, 0x00	; 0
     f58:	b3 01       	movw	r22, r6
     f5a:	0e 94 13 0b 	call	0x1626	; 0x1626 <fputc>
     f5e:	9a 94       	dec	r9
     f60:	e9 14       	cp	r14, r9
     f62:	c0 f3       	brcs	.-16     	; 0xf54 <vfprintf+0x6be>
     f64:	ea 94       	dec	r14
     f66:	e1 e0       	ldi	r30, 0x01	; 1
     f68:	f0 e0       	ldi	r31, 0x00	; 0
     f6a:	ec 0f       	add	r30, r28
     f6c:	fd 1f       	adc	r31, r29
     f6e:	ee 0d       	add	r30, r14
     f70:	f1 1d       	adc	r31, r1
     f72:	80 81       	ld	r24, Z
     f74:	90 e0       	ldi	r25, 0x00	; 0
     f76:	b3 01       	movw	r22, r6
     f78:	0e 94 13 0b 	call	0x1626	; 0x1626 <fputc>
     f7c:	ee 20       	and	r14, r14
     f7e:	91 f7       	brne	.-28     	; 0xf64 <vfprintf+0x6ce>
     f80:	06 c0       	rjmp	.+12     	; 0xf8e <vfprintf+0x6f8>
     f82:	80 e2       	ldi	r24, 0x20	; 32
     f84:	90 e0       	ldi	r25, 0x00	; 0
     f86:	b3 01       	movw	r22, r6
     f88:	0e 94 13 0b 	call	0x1626	; 0x1626 <fputc>
     f8c:	8a 94       	dec	r8
     f8e:	88 20       	and	r8, r8
     f90:	c1 f7       	brne	.-16     	; 0xf82 <vfprintf+0x6ec>
     f92:	99 cc       	rjmp	.-1742   	; 0x8c6 <vfprintf+0x30>
     f94:	f3 01       	movw	r30, r6
     f96:	66 81       	ldd	r22, Z+6	; 0x06
     f98:	77 81       	ldd	r23, Z+7	; 0x07
     f9a:	cb 01       	movw	r24, r22
     f9c:	61 96       	adiw	r28, 0x11	; 17
     f9e:	e2 e1       	ldi	r30, 0x12	; 18
     fa0:	0c 94 0a 0a 	jmp	0x1414	; 0x1414 <__epilogue_restores__>

00000fa4 <initADC>:
     fa4:	80 64       	ori	r24, 0x40	; 64
     fa6:	80 93 7c 00 	sts	0x007C, r24
     faa:	87 e8       	ldi	r24, 0x87	; 135
     fac:	80 93 7a 00 	sts	0x007A, r24
     fb0:	10 92 7b 00 	sts	0x007B, r1
     fb4:	80 e8       	ldi	r24, 0x80	; 128
     fb6:	80 93 7e 00 	sts	0x007E, r24
     fba:	8f ef       	ldi	r24, 0xFF	; 255
     fbc:	84 b9       	out	0x04, r24	; 4
     fbe:	08 95       	ret

00000fc0 <__vector_16>:
     fc0:	1f 92       	push	r1
     fc2:	0f 92       	push	r0
     fc4:	0f b6       	in	r0, 0x3f	; 63
     fc6:	0f 92       	push	r0
     fc8:	11 24       	eor	r1, r1
     fca:	8f 93       	push	r24
     fcc:	9f 93       	push	r25
     fce:	af 93       	push	r26
     fd0:	bf 93       	push	r27
     fd2:	80 91 64 02 	lds	r24, 0x0264
     fd6:	90 91 65 02 	lds	r25, 0x0265
     fda:	a0 91 66 02 	lds	r26, 0x0266
     fde:	b0 91 67 02 	lds	r27, 0x0267
     fe2:	01 96       	adiw	r24, 0x01	; 1
     fe4:	a1 1d       	adc	r26, r1
     fe6:	b1 1d       	adc	r27, r1
     fe8:	80 93 64 02 	sts	0x0264, r24
     fec:	90 93 65 02 	sts	0x0265, r25
     ff0:	a0 93 66 02 	sts	0x0266, r26
     ff4:	b0 93 67 02 	sts	0x0267, r27
     ff8:	bf 91       	pop	r27
     ffa:	af 91       	pop	r26
     ffc:	9f 91       	pop	r25
     ffe:	8f 91       	pop	r24
    1000:	0f 90       	pop	r0
    1002:	0f be       	out	0x3f, r0	; 63
    1004:	0f 90       	pop	r0
    1006:	1f 90       	pop	r1
    1008:	18 95       	reti

0000100a <initCLK>:
    100a:	82 e4       	ldi	r24, 0x42	; 66
    100c:	84 bd       	out	0x24, r24	; 36
    100e:	85 e0       	ldi	r24, 0x05	; 5
    1010:	85 bd       	out	0x25, r24	; 37
    1012:	08 95       	ret

00001014 <readSwitches>:
    1014:	80 e0       	ldi	r24, 0x00	; 0
    1016:	90 e0       	ldi	r25, 0x00	; 0
    1018:	a0 e2       	ldi	r26, 0x20	; 32
    101a:	b1 e4       	ldi	r27, 0x41	; 65
    101c:	80 93 4f 02 	sts	0x024F, r24
    1020:	90 93 50 02 	sts	0x0250, r25
    1024:	a0 93 51 02 	sts	0x0251, r26
    1028:	b0 93 52 02 	sts	0x0252, r27
    102c:	08 95       	ret

0000102e <setCLK>:
    102e:	08 95       	ret

00001030 <readADC>:
    1030:	4f 92       	push	r4
    1032:	5f 92       	push	r5
    1034:	6f 92       	push	r6
    1036:	7f 92       	push	r7
    1038:	8f 92       	push	r8
    103a:	9f 92       	push	r9
    103c:	af 92       	push	r10
    103e:	bf 92       	push	r11
    1040:	cf 92       	push	r12
    1042:	df 92       	push	r13
    1044:	ef 92       	push	r14
    1046:	ff 92       	push	r15
    1048:	0f 93       	push	r16
    104a:	1f 93       	push	r17
    104c:	df 93       	push	r29
    104e:	cf 93       	push	r28
    1050:	00 d0       	rcall	.+0      	; 0x1052 <readADC+0x22>
    1052:	00 d0       	rcall	.+0      	; 0x1054 <readADC+0x24>
    1054:	cd b7       	in	r28, 0x3d	; 61
    1056:	de b7       	in	r29, 0x3e	; 62
    1058:	ea e7       	ldi	r30, 0x7A	; 122
    105a:	f0 e0       	ldi	r31, 0x00	; 0
    105c:	80 81       	ld	r24, Z
    105e:	80 64       	ori	r24, 0x40	; 64
    1060:	80 83       	st	Z, r24
    1062:	20 91 78 00 	lds	r18, 0x0078
    1066:	30 e0       	ldi	r19, 0x00	; 0
    1068:	30 93 6d 02 	sts	0x026D, r19
    106c:	20 93 6c 02 	sts	0x026C, r18
    1070:	40 91 79 00 	lds	r20, 0x0079
    1074:	40 93 6e 02 	sts	0x026E, r20
    1078:	10 92 6f 02 	sts	0x026F, r1
    107c:	74 2f       	mov	r23, r20
    107e:	60 e0       	ldi	r22, 0x00	; 0
    1080:	62 0f       	add	r22, r18
    1082:	73 1f       	adc	r23, r19
    1084:	88 27       	eor	r24, r24
    1086:	77 fd       	sbrc	r23, 7
    1088:	80 95       	com	r24
    108a:	98 2f       	mov	r25, r24
    108c:	0e 94 d8 01 	call	0x3b0	; 0x3b0 <__floatsisf>
    1090:	3b 01       	movw	r6, r22
    1092:	4c 01       	movw	r8, r24
    1094:	60 93 70 02 	sts	0x0270, r22
    1098:	70 93 71 02 	sts	0x0271, r23
    109c:	80 93 72 02 	sts	0x0272, r24
    10a0:	90 93 73 02 	sts	0x0273, r25
    10a4:	80 91 64 02 	lds	r24, 0x0264
    10a8:	90 91 65 02 	lds	r25, 0x0265
    10ac:	a0 91 66 02 	lds	r26, 0x0266
    10b0:	b0 91 67 02 	lds	r27, 0x0267
    10b4:	89 83       	std	Y+1, r24	; 0x01
    10b6:	9a 83       	std	Y+2, r25	; 0x02
    10b8:	ab 83       	std	Y+3, r26	; 0x03
    10ba:	bc 83       	std	Y+4, r27	; 0x04
    10bc:	c4 01       	movw	r24, r8
    10be:	b3 01       	movw	r22, r6
    10c0:	2a e1       	ldi	r18, 0x1A	; 26
    10c2:	37 e6       	ldi	r19, 0x67	; 103
    10c4:	4c e9       	ldi	r20, 0x9C	; 156
    10c6:	50 e4       	ldi	r21, 0x40	; 64
    10c8:	0e 94 de 00 	call	0x1bc	; 0x1bc <__mulsf3>
    10cc:	5b 01       	movw	r10, r22
    10ce:	6c 01       	movw	r12, r24
    10d0:	cb 01       	movw	r24, r22
    10d2:	d6 01       	movw	r26, r12
    10d4:	80 93 74 02 	sts	0x0274, r24
    10d8:	90 93 75 02 	sts	0x0275, r25
    10dc:	a0 93 76 02 	sts	0x0276, r26
    10e0:	b0 93 77 02 	sts	0x0277, r27
    10e4:	c4 01       	movw	r24, r8
    10e6:	b3 01       	movw	r22, r6
    10e8:	28 ec       	ldi	r18, 0xC8	; 200
    10ea:	31 e2       	ldi	r19, 0x21	; 33
    10ec:	47 e8       	ldi	r20, 0x87	; 135
    10ee:	5e e3       	ldi	r21, 0x3E	; 62
    10f0:	0e 94 de 00 	call	0x1bc	; 0x1bc <__mulsf3>
    10f4:	7b 01       	movw	r14, r22
    10f6:	8c 01       	movw	r16, r24
    10f8:	cb 01       	movw	r24, r22
    10fa:	d8 01       	movw	r26, r16
    10fc:	80 93 68 02 	sts	0x0268, r24
    1100:	90 93 69 02 	sts	0x0269, r25
    1104:	a0 93 6a 02 	sts	0x026A, r26
    1108:	b0 93 6b 02 	sts	0x026B, r27
    110c:	ad b7       	in	r26, 0x3d	; 61
    110e:	be b7       	in	r27, 0x3e	; 62
    1110:	52 97       	sbiw	r26, 0x12	; 18
    1112:	0f b6       	in	r0, 0x3f	; 63
    1114:	f8 94       	cli
    1116:	be bf       	out	0x3e, r27	; 62
    1118:	0f be       	out	0x3f, r0	; 63
    111a:	ad bf       	out	0x3d, r26	; 61
    111c:	4d b6       	in	r4, 0x3d	; 61
    111e:	5e b6       	in	r5, 0x3e	; 62
    1120:	08 94       	sec
    1122:	41 1c       	adc	r4, r1
    1124:	51 1c       	adc	r5, r1
    1126:	80 e0       	ldi	r24, 0x00	; 0
    1128:	91 e0       	ldi	r25, 0x01	; 1
    112a:	12 96       	adiw	r26, 0x02	; 2
    112c:	9c 93       	st	X, r25
    112e:	8e 93       	st	-X, r24
    1130:	11 97       	sbiw	r26, 0x01	; 1
    1132:	69 81       	ldd	r22, Y+1	; 0x01
    1134:	7a 81       	ldd	r23, Y+2	; 0x02
    1136:	8b 81       	ldd	r24, Y+3	; 0x03
    1138:	9c 81       	ldd	r25, Y+4	; 0x04
    113a:	0e 94 36 02 	call	0x46c	; 0x46c <__floatunsisf>
    113e:	f2 01       	movw	r30, r4
    1140:	62 83       	std	Z+2, r22	; 0x02
    1142:	73 83       	std	Z+3, r23	; 0x03
    1144:	84 83       	std	Z+4, r24	; 0x04
    1146:	95 83       	std	Z+5, r25	; 0x05
    1148:	c7 01       	movw	r24, r14
    114a:	d8 01       	movw	r26, r16
    114c:	86 83       	std	Z+6, r24	; 0x06
    114e:	97 83       	std	Z+7, r25	; 0x07
    1150:	a0 87       	std	Z+8, r26	; 0x08
    1152:	b1 87       	std	Z+9, r27	; 0x09
    1154:	d2 01       	movw	r26, r4
    1156:	1a 96       	adiw	r26, 0x0a	; 10
    1158:	6d 92       	st	X+, r6
    115a:	7d 92       	st	X+, r7
    115c:	8d 92       	st	X+, r8
    115e:	9c 92       	st	X, r9
    1160:	1d 97       	sbiw	r26, 0x0d	; 13
    1162:	c5 01       	movw	r24, r10
    1164:	d6 01       	movw	r26, r12
    1166:	86 87       	std	Z+14, r24	; 0x0e
    1168:	97 87       	std	Z+15, r25	; 0x0f
    116a:	a0 8b       	std	Z+16, r26	; 0x10
    116c:	b1 8b       	std	Z+17, r27	; 0x11
    116e:	0e 94 3f 0b 	call	0x167e	; 0x167e <printf>
    1172:	8d b7       	in	r24, 0x3d	; 61
    1174:	9e b7       	in	r25, 0x3e	; 62
    1176:	42 96       	adiw	r24, 0x12	; 18
    1178:	0f b6       	in	r0, 0x3f	; 63
    117a:	f8 94       	cli
    117c:	9e bf       	out	0x3e, r25	; 62
    117e:	0f be       	out	0x3f, r0	; 63
    1180:	8d bf       	out	0x3d, r24	; 61
    1182:	0f 90       	pop	r0
    1184:	0f 90       	pop	r0
    1186:	0f 90       	pop	r0
    1188:	0f 90       	pop	r0
    118a:	cf 91       	pop	r28
    118c:	df 91       	pop	r29
    118e:	1f 91       	pop	r17
    1190:	0f 91       	pop	r16
    1192:	ff 90       	pop	r15
    1194:	ef 90       	pop	r14
    1196:	df 90       	pop	r13
    1198:	cf 90       	pop	r12
    119a:	bf 90       	pop	r11
    119c:	af 90       	pop	r10
    119e:	9f 90       	pop	r9
    11a0:	8f 90       	pop	r8
    11a2:	7f 90       	pop	r7
    11a4:	6f 90       	pop	r6
    11a6:	5f 90       	pop	r5
    11a8:	4f 90       	pop	r4
    11aa:	08 95       	ret

000011ac <Lab1Code>:
    11ac:	82 e4       	ldi	r24, 0x42	; 66
    11ae:	84 bd       	out	0x24, r24	; 36
    11b0:	85 e0       	ldi	r24, 0x05	; 5
    11b2:	85 bd       	out	0x25, r24	; 37
    11b4:	80 e0       	ldi	r24, 0x00	; 0
    11b6:	90 e0       	ldi	r25, 0x00	; 0
    11b8:	a0 e2       	ldi	r26, 0x20	; 32
    11ba:	b1 e4       	ldi	r27, 0x41	; 65
    11bc:	80 93 4f 02 	sts	0x024F, r24
    11c0:	90 93 50 02 	sts	0x0250, r25
    11c4:	a0 93 51 02 	sts	0x0251, r26
    11c8:	b0 93 52 02 	sts	0x0252, r27
    11cc:	80 91 64 02 	lds	r24, 0x0264
    11d0:	90 91 65 02 	lds	r25, 0x0265
    11d4:	a0 91 66 02 	lds	r26, 0x0266
    11d8:	b0 91 67 02 	lds	r27, 0x0267
    11dc:	81 52       	subi	r24, 0x21	; 33
    11de:	9c 41       	sbci	r25, 0x1C	; 28
    11e0:	a0 40       	sbci	r26, 0x00	; 0
    11e2:	b0 40       	sbci	r27, 0x00	; 0
    11e4:	50 f0       	brcs	.+20     	; 0x11fa <Lab1Code+0x4e>
    11e6:	0e 94 18 08 	call	0x1030	; 0x1030 <readADC>
    11ea:	10 92 64 02 	sts	0x0264, r1
    11ee:	10 92 65 02 	sts	0x0265, r1
    11f2:	10 92 66 02 	sts	0x0266, r1
    11f6:	10 92 67 02 	sts	0x0267, r1
    11fa:	80 91 64 02 	lds	r24, 0x0264
    11fe:	90 91 65 02 	lds	r25, 0x0265
    1202:	a0 91 66 02 	lds	r26, 0x0266
    1206:	b0 91 67 02 	lds	r27, 0x0267
    120a:	08 95       	ret

0000120c <debugUSARTInit>:
    120c:	9b 01       	movw	r18, r22
    120e:	ac 01       	movw	r20, r24
    1210:	64 e0       	ldi	r22, 0x04	; 4
    1212:	22 0f       	add	r18, r18
    1214:	33 1f       	adc	r19, r19
    1216:	44 1f       	adc	r20, r20
    1218:	55 1f       	adc	r21, r21
    121a:	6a 95       	dec	r22
    121c:	d1 f7       	brne	.-12     	; 0x1212 <debugUSARTInit+0x6>
    121e:	60 e0       	ldi	r22, 0x00	; 0
    1220:	70 e4       	ldi	r23, 0x40	; 64
    1222:	89 e1       	ldi	r24, 0x19	; 25
    1224:	91 e0       	ldi	r25, 0x01	; 1
    1226:	0e 94 cc 09 	call	0x1398	; 0x1398 <__udivmodsi4>
    122a:	c9 01       	movw	r24, r18
    122c:	da 01       	movw	r26, r20
    122e:	21 50       	subi	r18, 0x01	; 1
    1230:	20 93 cc 00 	sts	0x00CC, r18
    1234:	01 97       	sbiw	r24, 0x01	; 1
    1236:	a1 09       	sbc	r26, r1
    1238:	b1 09       	sbc	r27, r1
    123a:	89 2f       	mov	r24, r25
    123c:	9a 2f       	mov	r25, r26
    123e:	ab 2f       	mov	r26, r27
    1240:	bb 27       	eor	r27, r27
    1242:	80 93 cd 00 	sts	0x00CD, r24
    1246:	88 e1       	ldi	r24, 0x18	; 24
    1248:	80 93 c9 00 	sts	0x00C9, r24
    124c:	86 e0       	ldi	r24, 0x06	; 6
    124e:	80 93 ca 00 	sts	0x00CA, r24
    1252:	08 95       	ret

00001254 <putCharDebug>:
    1254:	98 2f       	mov	r25, r24
    1256:	80 91 c8 00 	lds	r24, 0x00C8
    125a:	85 ff       	sbrs	r24, 5
    125c:	fc cf       	rjmp	.-8      	; 0x1256 <putCharDebug+0x2>
    125e:	90 93 ce 00 	sts	0x00CE, r25
    1262:	08 95       	ret

00001264 <getCharDebug>:
    1264:	81 e6       	ldi	r24, 0x61	; 97
    1266:	08 95       	ret

00001268 <main>:
    1268:	0e 94 47 09 	call	0x128e	; 0x128e <initRBELib>
    126c:	60 e0       	ldi	r22, 0x00	; 0
    126e:	72 ec       	ldi	r23, 0xC2	; 194
    1270:	81 e0       	ldi	r24, 0x01	; 1
    1272:	90 e0       	ldi	r25, 0x00	; 0
    1274:	0e 94 06 09 	call	0x120c	; 0x120c <debugUSARTInit>
    1278:	87 e0       	ldi	r24, 0x07	; 7
    127a:	90 e0       	ldi	r25, 0x00	; 0
    127c:	0e 94 d2 07 	call	0xfa4	; 0xfa4 <initADC>
    1280:	14 b8       	out	0x04, r1	; 4
    1282:	8f ef       	ldi	r24, 0xFF	; 255
    1284:	8a b9       	out	0x0a, r24	; 10
    1286:	78 94       	sei
    1288:	0e 94 d6 08 	call	0x11ac	; 0x11ac <Lab1Code>
    128c:	fd cf       	rjmp	.-6      	; 0x1288 <main+0x20>

0000128e <initRBELib>:
    128e:	85 e5       	ldi	r24, 0x55	; 85
    1290:	92 e0       	ldi	r25, 0x02	; 2
    1292:	90 93 7b 02 	sts	0x027B, r25
    1296:	80 93 7a 02 	sts	0x027A, r24
    129a:	60 e0       	ldi	r22, 0x00	; 0
    129c:	72 ec       	ldi	r23, 0xC2	; 194
    129e:	81 e0       	ldi	r24, 0x01	; 1
    12a0:	90 e0       	ldi	r25, 0x00	; 0
    12a2:	0e 94 59 09 	call	0x12b2	; 0x12b2 <initAltCom>
    12a6:	08 95       	ret

000012a8 <printfRBE>:
    12a8:	0e 94 2a 09 	call	0x1254	; 0x1254 <putCharDebug>
    12ac:	80 e0       	ldi	r24, 0x00	; 0
    12ae:	90 e0       	ldi	r25, 0x00	; 0
    12b0:	08 95       	ret

000012b2 <initAltCom>:
    12b2:	9b 01       	movw	r18, r22
    12b4:	ac 01       	movw	r20, r24
    12b6:	84 e0       	ldi	r24, 0x04	; 4
    12b8:	22 0f       	add	r18, r18
    12ba:	33 1f       	adc	r19, r19
    12bc:	44 1f       	adc	r20, r20
    12be:	55 1f       	adc	r21, r21
    12c0:	8a 95       	dec	r24
    12c2:	d1 f7       	brne	.-12     	; 0x12b8 <initAltCom+0x6>
    12c4:	60 e0       	ldi	r22, 0x00	; 0
    12c6:	70 e4       	ldi	r23, 0x40	; 64
    12c8:	89 e1       	ldi	r24, 0x19	; 25
    12ca:	91 e0       	ldi	r25, 0x01	; 1
    12cc:	0e 94 cc 09 	call	0x1398	; 0x1398 <__udivmodsi4>
    12d0:	21 50       	subi	r18, 0x01	; 1
    12d2:	30 40       	sbci	r19, 0x00	; 0
    12d4:	30 93 c5 00 	sts	0x00C5, r19
    12d8:	20 93 c4 00 	sts	0x00C4, r18
    12dc:	88 e1       	ldi	r24, 0x18	; 24
    12de:	80 93 c1 00 	sts	0x00C1, r24
    12e2:	86 e0       	ldi	r24, 0x06	; 6
    12e4:	80 93 c2 00 	sts	0x00C2, r24
    12e8:	08 95       	ret

000012ea <setCharDebug>:
    12ea:	98 2f       	mov	r25, r24
    12ec:	80 91 c0 00 	lds	r24, 0x00C0
    12f0:	85 ff       	sbrs	r24, 5
    12f2:	fc cf       	rjmp	.-8      	; 0x12ec <setCharDebug+0x2>
    12f4:	90 93 c6 00 	sts	0x00C6, r25
    12f8:	08 95       	ret

000012fa <coPrintf>:
    12fa:	fc 01       	movw	r30, r24
    12fc:	07 c0       	rjmp	.+14     	; 0x130c <coPrintf+0x12>
    12fe:	80 91 c0 00 	lds	r24, 0x00C0
    1302:	85 ff       	sbrs	r24, 5
    1304:	fc cf       	rjmp	.-8      	; 0x12fe <coPrintf+0x4>
    1306:	90 93 c6 00 	sts	0x00C6, r25
    130a:	31 96       	adiw	r30, 0x01	; 1
    130c:	90 81       	ld	r25, Z
    130e:	99 23       	and	r25, r25
    1310:	b1 f7       	brne	.-20     	; 0x12fe <coPrintf+0x4>
    1312:	08 95       	ret

00001314 <setServo>:
    1314:	0f 93       	push	r16
    1316:	1f 93       	push	r17
    1318:	df 93       	push	r29
    131a:	cf 93       	push	r28
    131c:	cd b7       	in	r28, 0x3d	; 61
    131e:	de b7       	in	r29, 0x3e	; 62
    1320:	64 97       	sbiw	r28, 0x14	; 20
    1322:	0f b6       	in	r0, 0x3f	; 63
    1324:	f8 94       	cli
    1326:	de bf       	out	0x3e, r29	; 62
    1328:	0f be       	out	0x3f, r0	; 63
    132a:	cd bf       	out	0x3d, r28	; 61
    132c:	2d b7       	in	r18, 0x3d	; 61
    132e:	3e b7       	in	r19, 0x3e	; 62
    1330:	28 50       	subi	r18, 0x08	; 8
    1332:	30 40       	sbci	r19, 0x00	; 0
    1334:	0f b6       	in	r0, 0x3f	; 63
    1336:	f8 94       	cli
    1338:	3e bf       	out	0x3e, r19	; 62
    133a:	0f be       	out	0x3f, r0	; 63
    133c:	2d bf       	out	0x3d, r18	; 61
    133e:	ed b7       	in	r30, 0x3d	; 61
    1340:	fe b7       	in	r31, 0x3e	; 62
    1342:	31 96       	adiw	r30, 0x01	; 1
    1344:	8e 01       	movw	r16, r28
    1346:	0f 5f       	subi	r16, 0xFF	; 255
    1348:	1f 4f       	sbci	r17, 0xFF	; 255
    134a:	ad b7       	in	r26, 0x3d	; 61
    134c:	be b7       	in	r27, 0x3e	; 62
    134e:	12 96       	adiw	r26, 0x02	; 2
    1350:	1c 93       	st	X, r17
    1352:	0e 93       	st	-X, r16
    1354:	11 97       	sbiw	r26, 0x01	; 1
    1356:	23 e3       	ldi	r18, 0x33	; 51
    1358:	31 e0       	ldi	r19, 0x01	; 1
    135a:	33 83       	std	Z+3, r19	; 0x03
    135c:	22 83       	std	Z+2, r18	; 0x02
    135e:	95 83       	std	Z+5, r25	; 0x05
    1360:	84 83       	std	Z+4, r24	; 0x04
    1362:	77 83       	std	Z+7, r23	; 0x07
    1364:	66 83       	std	Z+6, r22	; 0x06
    1366:	0e 94 54 0b 	call	0x16a8	; 0x16a8 <sprintf>
    136a:	2d b7       	in	r18, 0x3d	; 61
    136c:	3e b7       	in	r19, 0x3e	; 62
    136e:	28 5f       	subi	r18, 0xF8	; 248
    1370:	3f 4f       	sbci	r19, 0xFF	; 255
    1372:	0f b6       	in	r0, 0x3f	; 63
    1374:	f8 94       	cli
    1376:	3e bf       	out	0x3e, r19	; 62
    1378:	0f be       	out	0x3f, r0	; 63
    137a:	2d bf       	out	0x3d, r18	; 61
    137c:	c8 01       	movw	r24, r16
    137e:	0e 94 7d 09 	call	0x12fa	; 0x12fa <coPrintf>
    1382:	64 96       	adiw	r28, 0x14	; 20
    1384:	0f b6       	in	r0, 0x3f	; 63
    1386:	f8 94       	cli
    1388:	de bf       	out	0x3e, r29	; 62
    138a:	0f be       	out	0x3f, r0	; 63
    138c:	cd bf       	out	0x3d, r28	; 61
    138e:	cf 91       	pop	r28
    1390:	df 91       	pop	r29
    1392:	1f 91       	pop	r17
    1394:	0f 91       	pop	r16
    1396:	08 95       	ret

00001398 <__udivmodsi4>:
    1398:	a1 e2       	ldi	r26, 0x21	; 33
    139a:	1a 2e       	mov	r1, r26
    139c:	aa 1b       	sub	r26, r26
    139e:	bb 1b       	sub	r27, r27
    13a0:	fd 01       	movw	r30, r26
    13a2:	0d c0       	rjmp	.+26     	; 0x13be <__udivmodsi4_ep>

000013a4 <__udivmodsi4_loop>:
    13a4:	aa 1f       	adc	r26, r26
    13a6:	bb 1f       	adc	r27, r27
    13a8:	ee 1f       	adc	r30, r30
    13aa:	ff 1f       	adc	r31, r31
    13ac:	a2 17       	cp	r26, r18
    13ae:	b3 07       	cpc	r27, r19
    13b0:	e4 07       	cpc	r30, r20
    13b2:	f5 07       	cpc	r31, r21
    13b4:	20 f0       	brcs	.+8      	; 0x13be <__udivmodsi4_ep>
    13b6:	a2 1b       	sub	r26, r18
    13b8:	b3 0b       	sbc	r27, r19
    13ba:	e4 0b       	sbc	r30, r20
    13bc:	f5 0b       	sbc	r31, r21

000013be <__udivmodsi4_ep>:
    13be:	66 1f       	adc	r22, r22
    13c0:	77 1f       	adc	r23, r23
    13c2:	88 1f       	adc	r24, r24
    13c4:	99 1f       	adc	r25, r25
    13c6:	1a 94       	dec	r1
    13c8:	69 f7       	brne	.-38     	; 0x13a4 <__udivmodsi4_loop>
    13ca:	60 95       	com	r22
    13cc:	70 95       	com	r23
    13ce:	80 95       	com	r24
    13d0:	90 95       	com	r25
    13d2:	9b 01       	movw	r18, r22
    13d4:	ac 01       	movw	r20, r24
    13d6:	bd 01       	movw	r22, r26
    13d8:	cf 01       	movw	r24, r30
    13da:	08 95       	ret

000013dc <__prologue_saves__>:
    13dc:	2f 92       	push	r2
    13de:	3f 92       	push	r3
    13e0:	4f 92       	push	r4
    13e2:	5f 92       	push	r5
    13e4:	6f 92       	push	r6
    13e6:	7f 92       	push	r7
    13e8:	8f 92       	push	r8
    13ea:	9f 92       	push	r9
    13ec:	af 92       	push	r10
    13ee:	bf 92       	push	r11
    13f0:	cf 92       	push	r12
    13f2:	df 92       	push	r13
    13f4:	ef 92       	push	r14
    13f6:	ff 92       	push	r15
    13f8:	0f 93       	push	r16
    13fa:	1f 93       	push	r17
    13fc:	cf 93       	push	r28
    13fe:	df 93       	push	r29
    1400:	cd b7       	in	r28, 0x3d	; 61
    1402:	de b7       	in	r29, 0x3e	; 62
    1404:	ca 1b       	sub	r28, r26
    1406:	db 0b       	sbc	r29, r27
    1408:	0f b6       	in	r0, 0x3f	; 63
    140a:	f8 94       	cli
    140c:	de bf       	out	0x3e, r29	; 62
    140e:	0f be       	out	0x3f, r0	; 63
    1410:	cd bf       	out	0x3d, r28	; 61
    1412:	09 94       	ijmp

00001414 <__epilogue_restores__>:
    1414:	2a 88       	ldd	r2, Y+18	; 0x12
    1416:	39 88       	ldd	r3, Y+17	; 0x11
    1418:	48 88       	ldd	r4, Y+16	; 0x10
    141a:	5f 84       	ldd	r5, Y+15	; 0x0f
    141c:	6e 84       	ldd	r6, Y+14	; 0x0e
    141e:	7d 84       	ldd	r7, Y+13	; 0x0d
    1420:	8c 84       	ldd	r8, Y+12	; 0x0c
    1422:	9b 84       	ldd	r9, Y+11	; 0x0b
    1424:	aa 84       	ldd	r10, Y+10	; 0x0a
    1426:	b9 84       	ldd	r11, Y+9	; 0x09
    1428:	c8 84       	ldd	r12, Y+8	; 0x08
    142a:	df 80       	ldd	r13, Y+7	; 0x07
    142c:	ee 80       	ldd	r14, Y+6	; 0x06
    142e:	fd 80       	ldd	r15, Y+5	; 0x05
    1430:	0c 81       	ldd	r16, Y+4	; 0x04
    1432:	1b 81       	ldd	r17, Y+3	; 0x03
    1434:	aa 81       	ldd	r26, Y+2	; 0x02
    1436:	b9 81       	ldd	r27, Y+1	; 0x01
    1438:	ce 0f       	add	r28, r30
    143a:	d1 1d       	adc	r29, r1
    143c:	0f b6       	in	r0, 0x3f	; 63
    143e:	f8 94       	cli
    1440:	de bf       	out	0x3e, r29	; 62
    1442:	0f be       	out	0x3f, r0	; 63
    1444:	cd bf       	out	0x3d, r28	; 61
    1446:	ed 01       	movw	r28, r26
    1448:	08 95       	ret

0000144a <__ftoa_engine>:
    144a:	28 30       	cpi	r18, 0x08	; 8
    144c:	08 f0       	brcs	.+2      	; 0x1450 <__ftoa_engine+0x6>
    144e:	27 e0       	ldi	r18, 0x07	; 7
    1450:	33 27       	eor	r19, r19
    1452:	da 01       	movw	r26, r20
    1454:	99 0f       	add	r25, r25
    1456:	31 1d       	adc	r19, r1
    1458:	87 fd       	sbrc	r24, 7
    145a:	91 60       	ori	r25, 0x01	; 1
    145c:	00 96       	adiw	r24, 0x00	; 0
    145e:	61 05       	cpc	r22, r1
    1460:	71 05       	cpc	r23, r1
    1462:	39 f4       	brne	.+14     	; 0x1472 <__ftoa_engine+0x28>
    1464:	32 60       	ori	r19, 0x02	; 2
    1466:	2e 5f       	subi	r18, 0xFE	; 254
    1468:	3d 93       	st	X+, r19
    146a:	30 e3       	ldi	r19, 0x30	; 48
    146c:	2a 95       	dec	r18
    146e:	e1 f7       	brne	.-8      	; 0x1468 <__ftoa_engine+0x1e>
    1470:	08 95       	ret
    1472:	9f 3f       	cpi	r25, 0xFF	; 255
    1474:	30 f0       	brcs	.+12     	; 0x1482 <__ftoa_engine+0x38>
    1476:	80 38       	cpi	r24, 0x80	; 128
    1478:	71 05       	cpc	r23, r1
    147a:	61 05       	cpc	r22, r1
    147c:	09 f0       	breq	.+2      	; 0x1480 <__ftoa_engine+0x36>
    147e:	3c 5f       	subi	r19, 0xFC	; 252
    1480:	3c 5f       	subi	r19, 0xFC	; 252
    1482:	3d 93       	st	X+, r19
    1484:	91 30       	cpi	r25, 0x01	; 1
    1486:	08 f0       	brcs	.+2      	; 0x148a <__ftoa_engine+0x40>
    1488:	80 68       	ori	r24, 0x80	; 128
    148a:	91 1d       	adc	r25, r1
    148c:	df 93       	push	r29
    148e:	cf 93       	push	r28
    1490:	1f 93       	push	r17
    1492:	0f 93       	push	r16
    1494:	ff 92       	push	r15
    1496:	ef 92       	push	r14
    1498:	19 2f       	mov	r17, r25
    149a:	98 7f       	andi	r25, 0xF8	; 248
    149c:	96 95       	lsr	r25
    149e:	e9 2f       	mov	r30, r25
    14a0:	96 95       	lsr	r25
    14a2:	96 95       	lsr	r25
    14a4:	e9 0f       	add	r30, r25
    14a6:	ff 27       	eor	r31, r31
    14a8:	e2 52       	subi	r30, 0x22	; 34
    14aa:	ff 4f       	sbci	r31, 0xFF	; 255
    14ac:	99 27       	eor	r25, r25
    14ae:	33 27       	eor	r19, r19
    14b0:	ee 24       	eor	r14, r14
    14b2:	ff 24       	eor	r15, r15
    14b4:	a7 01       	movw	r20, r14
    14b6:	e7 01       	movw	r28, r14
    14b8:	05 90       	lpm	r0, Z+
    14ba:	08 94       	sec
    14bc:	07 94       	ror	r0
    14be:	28 f4       	brcc	.+10     	; 0x14ca <__ftoa_engine+0x80>
    14c0:	36 0f       	add	r19, r22
    14c2:	e7 1e       	adc	r14, r23
    14c4:	f8 1e       	adc	r15, r24
    14c6:	49 1f       	adc	r20, r25
    14c8:	51 1d       	adc	r21, r1
    14ca:	66 0f       	add	r22, r22
    14cc:	77 1f       	adc	r23, r23
    14ce:	88 1f       	adc	r24, r24
    14d0:	99 1f       	adc	r25, r25
    14d2:	06 94       	lsr	r0
    14d4:	a1 f7       	brne	.-24     	; 0x14be <__ftoa_engine+0x74>
    14d6:	05 90       	lpm	r0, Z+
    14d8:	07 94       	ror	r0
    14da:	28 f4       	brcc	.+10     	; 0x14e6 <__ftoa_engine+0x9c>
    14dc:	e7 0e       	add	r14, r23
    14de:	f8 1e       	adc	r15, r24
    14e0:	49 1f       	adc	r20, r25
    14e2:	56 1f       	adc	r21, r22
    14e4:	c1 1d       	adc	r28, r1
    14e6:	77 0f       	add	r23, r23
    14e8:	88 1f       	adc	r24, r24
    14ea:	99 1f       	adc	r25, r25
    14ec:	66 1f       	adc	r22, r22
    14ee:	06 94       	lsr	r0
    14f0:	a1 f7       	brne	.-24     	; 0x14da <__ftoa_engine+0x90>
    14f2:	05 90       	lpm	r0, Z+
    14f4:	07 94       	ror	r0
    14f6:	28 f4       	brcc	.+10     	; 0x1502 <__ftoa_engine+0xb8>
    14f8:	f8 0e       	add	r15, r24
    14fa:	49 1f       	adc	r20, r25
    14fc:	56 1f       	adc	r21, r22
    14fe:	c7 1f       	adc	r28, r23
    1500:	d1 1d       	adc	r29, r1
    1502:	88 0f       	add	r24, r24
    1504:	99 1f       	adc	r25, r25
    1506:	66 1f       	adc	r22, r22
    1508:	77 1f       	adc	r23, r23
    150a:	06 94       	lsr	r0
    150c:	a1 f7       	brne	.-24     	; 0x14f6 <__ftoa_engine+0xac>
    150e:	05 90       	lpm	r0, Z+
    1510:	07 94       	ror	r0
    1512:	20 f4       	brcc	.+8      	; 0x151c <__ftoa_engine+0xd2>
    1514:	49 0f       	add	r20, r25
    1516:	56 1f       	adc	r21, r22
    1518:	c7 1f       	adc	r28, r23
    151a:	d8 1f       	adc	r29, r24
    151c:	99 0f       	add	r25, r25
    151e:	66 1f       	adc	r22, r22
    1520:	77 1f       	adc	r23, r23
    1522:	88 1f       	adc	r24, r24
    1524:	06 94       	lsr	r0
    1526:	a9 f7       	brne	.-22     	; 0x1512 <__ftoa_engine+0xc8>
    1528:	84 91       	lpm	r24, Z+
    152a:	10 95       	com	r17
    152c:	17 70       	andi	r17, 0x07	; 7
    152e:	41 f0       	breq	.+16     	; 0x1540 <__ftoa_engine+0xf6>
    1530:	d6 95       	lsr	r29
    1532:	c7 95       	ror	r28
    1534:	57 95       	ror	r21
    1536:	47 95       	ror	r20
    1538:	f7 94       	ror	r15
    153a:	e7 94       	ror	r14
    153c:	1a 95       	dec	r17
    153e:	c1 f7       	brne	.-16     	; 0x1530 <__ftoa_engine+0xe6>
    1540:	e4 e8       	ldi	r30, 0x84	; 132
    1542:	f0 e0       	ldi	r31, 0x00	; 0
    1544:	68 94       	set
    1546:	15 90       	lpm	r1, Z+
    1548:	15 91       	lpm	r17, Z+
    154a:	35 91       	lpm	r19, Z+
    154c:	65 91       	lpm	r22, Z+
    154e:	95 91       	lpm	r25, Z+
    1550:	05 90       	lpm	r0, Z+
    1552:	7f e2       	ldi	r23, 0x2F	; 47
    1554:	73 95       	inc	r23
    1556:	e1 18       	sub	r14, r1
    1558:	f1 0a       	sbc	r15, r17
    155a:	43 0b       	sbc	r20, r19
    155c:	56 0b       	sbc	r21, r22
    155e:	c9 0b       	sbc	r28, r25
    1560:	d0 09       	sbc	r29, r0
    1562:	c0 f7       	brcc	.-16     	; 0x1554 <__ftoa_engine+0x10a>
    1564:	e1 0c       	add	r14, r1
    1566:	f1 1e       	adc	r15, r17
    1568:	43 1f       	adc	r20, r19
    156a:	56 1f       	adc	r21, r22
    156c:	c9 1f       	adc	r28, r25
    156e:	d0 1d       	adc	r29, r0
    1570:	7e f4       	brtc	.+30     	; 0x1590 <__ftoa_engine+0x146>
    1572:	70 33       	cpi	r23, 0x30	; 48
    1574:	11 f4       	brne	.+4      	; 0x157a <__ftoa_engine+0x130>
    1576:	8a 95       	dec	r24
    1578:	e6 cf       	rjmp	.-52     	; 0x1546 <__ftoa_engine+0xfc>
    157a:	e8 94       	clt
    157c:	01 50       	subi	r16, 0x01	; 1
    157e:	30 f0       	brcs	.+12     	; 0x158c <__ftoa_engine+0x142>
    1580:	08 0f       	add	r16, r24
    1582:	0a f4       	brpl	.+2      	; 0x1586 <__ftoa_engine+0x13c>
    1584:	00 27       	eor	r16, r16
    1586:	02 17       	cp	r16, r18
    1588:	08 f4       	brcc	.+2      	; 0x158c <__ftoa_engine+0x142>
    158a:	20 2f       	mov	r18, r16
    158c:	23 95       	inc	r18
    158e:	02 2f       	mov	r16, r18
    1590:	7a 33       	cpi	r23, 0x3A	; 58
    1592:	28 f0       	brcs	.+10     	; 0x159e <__ftoa_engine+0x154>
    1594:	79 e3       	ldi	r23, 0x39	; 57
    1596:	7d 93       	st	X+, r23
    1598:	2a 95       	dec	r18
    159a:	e9 f7       	brne	.-6      	; 0x1596 <__ftoa_engine+0x14c>
    159c:	10 c0       	rjmp	.+32     	; 0x15be <__ftoa_engine+0x174>
    159e:	7d 93       	st	X+, r23
    15a0:	2a 95       	dec	r18
    15a2:	89 f6       	brne	.-94     	; 0x1546 <__ftoa_engine+0xfc>
    15a4:	06 94       	lsr	r0
    15a6:	97 95       	ror	r25
    15a8:	67 95       	ror	r22
    15aa:	37 95       	ror	r19
    15ac:	17 95       	ror	r17
    15ae:	17 94       	ror	r1
    15b0:	e1 18       	sub	r14, r1
    15b2:	f1 0a       	sbc	r15, r17
    15b4:	43 0b       	sbc	r20, r19
    15b6:	56 0b       	sbc	r21, r22
    15b8:	c9 0b       	sbc	r28, r25
    15ba:	d0 09       	sbc	r29, r0
    15bc:	98 f0       	brcs	.+38     	; 0x15e4 <__ftoa_engine+0x19a>
    15be:	23 95       	inc	r18
    15c0:	7e 91       	ld	r23, -X
    15c2:	73 95       	inc	r23
    15c4:	7a 33       	cpi	r23, 0x3A	; 58
    15c6:	08 f0       	brcs	.+2      	; 0x15ca <__ftoa_engine+0x180>
    15c8:	70 e3       	ldi	r23, 0x30	; 48
    15ca:	7c 93       	st	X, r23
    15cc:	20 13       	cpse	r18, r16
    15ce:	b8 f7       	brcc	.-18     	; 0x15be <__ftoa_engine+0x174>
    15d0:	7e 91       	ld	r23, -X
    15d2:	70 61       	ori	r23, 0x10	; 16
    15d4:	7d 93       	st	X+, r23
    15d6:	30 f0       	brcs	.+12     	; 0x15e4 <__ftoa_engine+0x19a>
    15d8:	83 95       	inc	r24
    15da:	71 e3       	ldi	r23, 0x31	; 49
    15dc:	7d 93       	st	X+, r23
    15de:	70 e3       	ldi	r23, 0x30	; 48
    15e0:	2a 95       	dec	r18
    15e2:	e1 f7       	brne	.-8      	; 0x15dc <__ftoa_engine+0x192>
    15e4:	11 24       	eor	r1, r1
    15e6:	ef 90       	pop	r14
    15e8:	ff 90       	pop	r15
    15ea:	0f 91       	pop	r16
    15ec:	1f 91       	pop	r17
    15ee:	cf 91       	pop	r28
    15f0:	df 91       	pop	r29
    15f2:	99 27       	eor	r25, r25
    15f4:	87 fd       	sbrc	r24, 7
    15f6:	90 95       	com	r25
    15f8:	08 95       	ret

000015fa <strnlen_P>:
    15fa:	fc 01       	movw	r30, r24
    15fc:	05 90       	lpm	r0, Z+
    15fe:	61 50       	subi	r22, 0x01	; 1
    1600:	70 40       	sbci	r23, 0x00	; 0
    1602:	01 10       	cpse	r0, r1
    1604:	d8 f7       	brcc	.-10     	; 0x15fc <strnlen_P+0x2>
    1606:	80 95       	com	r24
    1608:	90 95       	com	r25
    160a:	8e 0f       	add	r24, r30
    160c:	9f 1f       	adc	r25, r31
    160e:	08 95       	ret

00001610 <strnlen>:
    1610:	fc 01       	movw	r30, r24
    1612:	61 50       	subi	r22, 0x01	; 1
    1614:	70 40       	sbci	r23, 0x00	; 0
    1616:	01 90       	ld	r0, Z+
    1618:	01 10       	cpse	r0, r1
    161a:	d8 f7       	brcc	.-10     	; 0x1612 <strnlen+0x2>
    161c:	80 95       	com	r24
    161e:	90 95       	com	r25
    1620:	8e 0f       	add	r24, r30
    1622:	9f 1f       	adc	r25, r31
    1624:	08 95       	ret

00001626 <fputc>:
    1626:	0f 93       	push	r16
    1628:	1f 93       	push	r17
    162a:	cf 93       	push	r28
    162c:	df 93       	push	r29
    162e:	8c 01       	movw	r16, r24
    1630:	eb 01       	movw	r28, r22
    1632:	8b 81       	ldd	r24, Y+3	; 0x03
    1634:	81 ff       	sbrs	r24, 1
    1636:	1b c0       	rjmp	.+54     	; 0x166e <fputc+0x48>
    1638:	82 ff       	sbrs	r24, 2
    163a:	0d c0       	rjmp	.+26     	; 0x1656 <fputc+0x30>
    163c:	2e 81       	ldd	r18, Y+6	; 0x06
    163e:	3f 81       	ldd	r19, Y+7	; 0x07
    1640:	8c 81       	ldd	r24, Y+4	; 0x04
    1642:	9d 81       	ldd	r25, Y+5	; 0x05
    1644:	28 17       	cp	r18, r24
    1646:	39 07       	cpc	r19, r25
    1648:	64 f4       	brge	.+24     	; 0x1662 <fputc+0x3c>
    164a:	e8 81       	ld	r30, Y
    164c:	f9 81       	ldd	r31, Y+1	; 0x01
    164e:	01 93       	st	Z+, r16
    1650:	f9 83       	std	Y+1, r31	; 0x01
    1652:	e8 83       	st	Y, r30
    1654:	06 c0       	rjmp	.+12     	; 0x1662 <fputc+0x3c>
    1656:	e8 85       	ldd	r30, Y+8	; 0x08
    1658:	f9 85       	ldd	r31, Y+9	; 0x09
    165a:	80 2f       	mov	r24, r16
    165c:	09 95       	icall
    165e:	89 2b       	or	r24, r25
    1660:	31 f4       	brne	.+12     	; 0x166e <fputc+0x48>
    1662:	8e 81       	ldd	r24, Y+6	; 0x06
    1664:	9f 81       	ldd	r25, Y+7	; 0x07
    1666:	01 96       	adiw	r24, 0x01	; 1
    1668:	9f 83       	std	Y+7, r25	; 0x07
    166a:	8e 83       	std	Y+6, r24	; 0x06
    166c:	02 c0       	rjmp	.+4      	; 0x1672 <fputc+0x4c>
    166e:	0f ef       	ldi	r16, 0xFF	; 255
    1670:	1f ef       	ldi	r17, 0xFF	; 255
    1672:	c8 01       	movw	r24, r16
    1674:	df 91       	pop	r29
    1676:	cf 91       	pop	r28
    1678:	1f 91       	pop	r17
    167a:	0f 91       	pop	r16
    167c:	08 95       	ret

0000167e <printf>:
    167e:	a0 e0       	ldi	r26, 0x00	; 0
    1680:	b0 e0       	ldi	r27, 0x00	; 0
    1682:	e5 e4       	ldi	r30, 0x45	; 69
    1684:	fb e0       	ldi	r31, 0x0B	; 11
    1686:	0c 94 fe 09 	jmp	0x13fc	; 0x13fc <__prologue_saves__+0x20>
    168a:	fe 01       	movw	r30, r28
    168c:	35 96       	adiw	r30, 0x05	; 5
    168e:	61 91       	ld	r22, Z+
    1690:	71 91       	ld	r23, Z+
    1692:	80 91 7a 02 	lds	r24, 0x027A
    1696:	90 91 7b 02 	lds	r25, 0x027B
    169a:	af 01       	movw	r20, r30
    169c:	0e 94 4b 04 	call	0x896	; 0x896 <vfprintf>
    16a0:	20 96       	adiw	r28, 0x00	; 0
    16a2:	e2 e0       	ldi	r30, 0x02	; 2
    16a4:	0c 94 1a 0a 	jmp	0x1434	; 0x1434 <__epilogue_restores__+0x20>

000016a8 <sprintf>:
    16a8:	ae e0       	ldi	r26, 0x0E	; 14
    16aa:	b0 e0       	ldi	r27, 0x00	; 0
    16ac:	ea e5       	ldi	r30, 0x5A	; 90
    16ae:	fb e0       	ldi	r31, 0x0B	; 11
    16b0:	0c 94 fc 09 	jmp	0x13f8	; 0x13f8 <__prologue_saves__+0x1c>
    16b4:	0d 89       	ldd	r16, Y+21	; 0x15
    16b6:	1e 89       	ldd	r17, Y+22	; 0x16
    16b8:	86 e0       	ldi	r24, 0x06	; 6
    16ba:	8c 83       	std	Y+4, r24	; 0x04
    16bc:	1a 83       	std	Y+2, r17	; 0x02
    16be:	09 83       	std	Y+1, r16	; 0x01
    16c0:	8f ef       	ldi	r24, 0xFF	; 255
    16c2:	9f e7       	ldi	r25, 0x7F	; 127
    16c4:	9e 83       	std	Y+6, r25	; 0x06
    16c6:	8d 83       	std	Y+5, r24	; 0x05
    16c8:	9e 01       	movw	r18, r28
    16ca:	27 5e       	subi	r18, 0xE7	; 231
    16cc:	3f 4f       	sbci	r19, 0xFF	; 255
    16ce:	ce 01       	movw	r24, r28
    16d0:	01 96       	adiw	r24, 0x01	; 1
    16d2:	6f 89       	ldd	r22, Y+23	; 0x17
    16d4:	78 8d       	ldd	r23, Y+24	; 0x18
    16d6:	a9 01       	movw	r20, r18
    16d8:	0e 94 4b 04 	call	0x896	; 0x896 <vfprintf>
    16dc:	2f 81       	ldd	r18, Y+7	; 0x07
    16de:	38 85       	ldd	r19, Y+8	; 0x08
    16e0:	02 0f       	add	r16, r18
    16e2:	13 1f       	adc	r17, r19
    16e4:	f8 01       	movw	r30, r16
    16e6:	10 82       	st	Z, r1
    16e8:	2e 96       	adiw	r28, 0x0e	; 14
    16ea:	e4 e0       	ldi	r30, 0x04	; 4
    16ec:	0c 94 18 0a 	jmp	0x1430	; 0x1430 <__epilogue_restores__+0x1c>

000016f0 <__ultoa_invert>:
    16f0:	fa 01       	movw	r30, r20
    16f2:	aa 27       	eor	r26, r26
    16f4:	28 30       	cpi	r18, 0x08	; 8
    16f6:	51 f1       	breq	.+84     	; 0x174c <__ultoa_invert+0x5c>
    16f8:	20 31       	cpi	r18, 0x10	; 16
    16fa:	81 f1       	breq	.+96     	; 0x175c <__ultoa_invert+0x6c>
    16fc:	e8 94       	clt
    16fe:	6f 93       	push	r22
    1700:	6e 7f       	andi	r22, 0xFE	; 254
    1702:	6e 5f       	subi	r22, 0xFE	; 254
    1704:	7f 4f       	sbci	r23, 0xFF	; 255
    1706:	8f 4f       	sbci	r24, 0xFF	; 255
    1708:	9f 4f       	sbci	r25, 0xFF	; 255
    170a:	af 4f       	sbci	r26, 0xFF	; 255
    170c:	b1 e0       	ldi	r27, 0x01	; 1
    170e:	3e d0       	rcall	.+124    	; 0x178c <__ultoa_invert+0x9c>
    1710:	b4 e0       	ldi	r27, 0x04	; 4
    1712:	3c d0       	rcall	.+120    	; 0x178c <__ultoa_invert+0x9c>
    1714:	67 0f       	add	r22, r23
    1716:	78 1f       	adc	r23, r24
    1718:	89 1f       	adc	r24, r25
    171a:	9a 1f       	adc	r25, r26
    171c:	a1 1d       	adc	r26, r1
    171e:	68 0f       	add	r22, r24
    1720:	79 1f       	adc	r23, r25
    1722:	8a 1f       	adc	r24, r26
    1724:	91 1d       	adc	r25, r1
    1726:	a1 1d       	adc	r26, r1
    1728:	6a 0f       	add	r22, r26
    172a:	71 1d       	adc	r23, r1
    172c:	81 1d       	adc	r24, r1
    172e:	91 1d       	adc	r25, r1
    1730:	a1 1d       	adc	r26, r1
    1732:	20 d0       	rcall	.+64     	; 0x1774 <__ultoa_invert+0x84>
    1734:	09 f4       	brne	.+2      	; 0x1738 <__ultoa_invert+0x48>
    1736:	68 94       	set
    1738:	3f 91       	pop	r19
    173a:	2a e0       	ldi	r18, 0x0A	; 10
    173c:	26 9f       	mul	r18, r22
    173e:	11 24       	eor	r1, r1
    1740:	30 19       	sub	r19, r0
    1742:	30 5d       	subi	r19, 0xD0	; 208
    1744:	31 93       	st	Z+, r19
    1746:	de f6       	brtc	.-74     	; 0x16fe <__ultoa_invert+0xe>
    1748:	cf 01       	movw	r24, r30
    174a:	08 95       	ret
    174c:	46 2f       	mov	r20, r22
    174e:	47 70       	andi	r20, 0x07	; 7
    1750:	40 5d       	subi	r20, 0xD0	; 208
    1752:	41 93       	st	Z+, r20
    1754:	b3 e0       	ldi	r27, 0x03	; 3
    1756:	0f d0       	rcall	.+30     	; 0x1776 <__ultoa_invert+0x86>
    1758:	c9 f7       	brne	.-14     	; 0x174c <__ultoa_invert+0x5c>
    175a:	f6 cf       	rjmp	.-20     	; 0x1748 <__ultoa_invert+0x58>
    175c:	46 2f       	mov	r20, r22
    175e:	4f 70       	andi	r20, 0x0F	; 15
    1760:	40 5d       	subi	r20, 0xD0	; 208
    1762:	4a 33       	cpi	r20, 0x3A	; 58
    1764:	18 f0       	brcs	.+6      	; 0x176c <__ultoa_invert+0x7c>
    1766:	49 5d       	subi	r20, 0xD9	; 217
    1768:	31 fd       	sbrc	r19, 1
    176a:	40 52       	subi	r20, 0x20	; 32
    176c:	41 93       	st	Z+, r20
    176e:	02 d0       	rcall	.+4      	; 0x1774 <__ultoa_invert+0x84>
    1770:	a9 f7       	brne	.-22     	; 0x175c <__ultoa_invert+0x6c>
    1772:	ea cf       	rjmp	.-44     	; 0x1748 <__ultoa_invert+0x58>
    1774:	b4 e0       	ldi	r27, 0x04	; 4
    1776:	a6 95       	lsr	r26
    1778:	97 95       	ror	r25
    177a:	87 95       	ror	r24
    177c:	77 95       	ror	r23
    177e:	67 95       	ror	r22
    1780:	ba 95       	dec	r27
    1782:	c9 f7       	brne	.-14     	; 0x1776 <__ultoa_invert+0x86>
    1784:	00 97       	sbiw	r24, 0x00	; 0
    1786:	61 05       	cpc	r22, r1
    1788:	71 05       	cpc	r23, r1
    178a:	08 95       	ret
    178c:	9b 01       	movw	r18, r22
    178e:	ac 01       	movw	r20, r24
    1790:	0a 2e       	mov	r0, r26
    1792:	06 94       	lsr	r0
    1794:	57 95       	ror	r21
    1796:	47 95       	ror	r20
    1798:	37 95       	ror	r19
    179a:	27 95       	ror	r18
    179c:	ba 95       	dec	r27
    179e:	c9 f7       	brne	.-14     	; 0x1792 <__ultoa_invert+0xa2>
    17a0:	62 0f       	add	r22, r18
    17a2:	73 1f       	adc	r23, r19
    17a4:	84 1f       	adc	r24, r20
    17a6:	95 1f       	adc	r25, r21
    17a8:	a0 1d       	adc	r26, r0
    17aa:	08 95       	ret

000017ac <_exit>:
    17ac:	f8 94       	cli

000017ae <__stop_program>:
    17ae:	ff cf       	rjmp	.-2      	; 0x17ae <__stop_program>
